	.text
	.file	"Extractor.cpp"
	.globl	_ZN17feature_extractor16FeatureExtractorC2ERN4llvm6ModuleE # -- Begin function _ZN17feature_extractor16FeatureExtractorC2ERN4llvm6ModuleE
	.p2align	4, 0x90
	.type	_ZN17feature_extractor16FeatureExtractorC2ERN4llvm6ModuleE,@function
_ZN17feature_extractor16FeatureExtractorC2ERN4llvm6ModuleE: # @_ZN17feature_extractor16FeatureExtractorC2ERN4llvm6ModuleE
.Lfunc_begin0:
	.cfi_startproc
	.cfi_personality 3, __gxx_personality_v0
	.cfi_lsda 3, .Lexception0
# %bb.0:
	pushq	%rbp
	.cfi_def_cfa_offset 16
	.cfi_offset %rbp, -16
	movq	%rsp, %rbp
	.cfi_def_cfa_register %rbp
	subq	$2576, %rsp             # imm = 0xA10
	movq	%rdi, -8(%rbp)
	movq	%rsi, -16(%rbp)
	movq	-16(%rbp), %rax
	movq	%rax, -24(%rbp)
	movq	-24(%rbp), %rdi
	callq	_ZN4llvm6Module5beginEv
	movq	%rax, -32(%rbp)
	movq	-24(%rbp), %rdi
	callq	_ZN4llvm6Module3endEv
	movq	%rax, -40(%rbp)
.LBB0_1:                                # =>This Loop Header: Depth=1
                                        #     Child Loop BB0_6 Depth 2
                                        #       Child Loop BB0_24 Depth 3
                                        #       Child Loop BB0_42 Depth 3
                                        #       Child Loop BB0_69 Depth 3
                                        #       Child Loop BB0_79 Depth 3
                                        #         Child Loop BB0_134 Depth 4
                                        #         Child Loop BB0_212 Depth 4
                                        #         Child Loop BB0_260 Depth 4
	leaq	-32(%rbp), %rdi
	leaq	-40(%rbp), %rsi
	callq	_ZN4llvmneERKNS_14ilist_iteratorINS_12ilist_detail12node_optionsINS_8FunctionELb0ELb0EvEELb0ELb0EEES7_
	testb	$1, %al
	jne	.LBB0_2
	jmp	.LBB0_422
.LBB0_2:                                #   in Loop: Header=BB0_1 Depth=1
	leaq	-32(%rbp), %rdi
	callq	_ZNK4llvm14ilist_iteratorINS_12ilist_detail12node_optionsINS_8FunctionELb0ELb0EvEELb0ELb0EEdeEv
	movq	%rax, -48(%rbp)
	movq	-48(%rbp), %rax
	movq	%rax, %rdi
	callq	_ZNK4llvm5Value7getNameEv
	movq	%rax, -64(%rbp)
	movq	%rdx, -56(%rbp)
	movq	-48(%rbp), %rax
	movq	%rax, %rdi
	callq	_ZNK4llvm11GlobalValue13isDeclarationEv
	andb	$1, %al
	movzbl	%al, %ecx
	cmpl	$0, %ecx
	jne	.LBB0_420
# %bb.3:                                #   in Loop: Header=BB0_1 Depth=1
	movl	$0, -68(%rbp)
	movl	$0, -72(%rbp)
	movl	$0, -76(%rbp)
	movl	$0, -80(%rbp)
	movl	$0, -84(%rbp)
	movl	$0, -88(%rbp)
	movl	$0, -92(%rbp)
	movl	$0, -96(%rbp)
	movl	$0, -100(%rbp)
	movl	$0, -104(%rbp)
	movl	$0, -108(%rbp)
	movl	$0, -112(%rbp)
	movl	$0, -116(%rbp)
	movl	$0, -120(%rbp)
	movl	$0, -124(%rbp)
	movl	$0, -128(%rbp)
	movl	$0, -132(%rbp)
	movl	$0, -136(%rbp)
	movl	$0, -140(%rbp)
	movl	$0, -144(%rbp)
	movl	$0, -148(%rbp)
	movl	$0, -152(%rbp)
	movl	$0, -156(%rbp)
	movl	$0, -160(%rbp)
	movl	$0, -164(%rbp)
	movl	$0, -168(%rbp)
	movl	$0, -172(%rbp)
	movl	$0, -176(%rbp)
	movl	$0, -180(%rbp)
	movl	$0, -184(%rbp)
	movl	$0, -188(%rbp)
	movl	$0, -192(%rbp)
	movl	$0, -196(%rbp)
	movl	$0, -200(%rbp)
	movl	$0, -204(%rbp)
	movl	$0, -208(%rbp)
	movl	$0, -212(%rbp)
	movl	$0, -216(%rbp)
	movl	$0, -220(%rbp)
	movl	$0, -224(%rbp)
	movl	$0, -228(%rbp)
	movl	$0, -232(%rbp)
	movl	$0, -236(%rbp)
	movl	$0, -240(%rbp)
	movl	$0, -248(%rbp)
	movl	$0, -252(%rbp)
	movl	$0, -256(%rbp)
	movl	$0, -260(%rbp)
	movl	$0, -264(%rbp)
	movl	$0, -268(%rbp)
	movl	$0, -272(%rbp)
	movl	$0, -276(%rbp)
	movl	$0, -280(%rbp)
	movl	$0, -284(%rbp)
	movl	$0, -288(%rbp)
	movl	$0, -292(%rbp)
	movl	$0, -296(%rbp)
	movl	$0, -300(%rbp)
	leaq	-352(%rbp), %rdi
	callq	_ZNSt3setIPN4llvm5ValueESt4lessIS2_ESaIS2_EEC2Ev
	leaq	-400(%rbp), %rdi
	callq	_ZNSt3setIPN4llvm14GlobalVariableESt4lessIS2_ESaIS2_EEC2Ev
	movq	-48(%rbp), %rax
	movq	%rax, -408(%rbp)
	movq	-408(%rbp), %rdi
.Ltmp0:
	callq	_ZN4llvm8Function5beginEv
.Ltmp1:
	movq	%rax, -1016(%rbp)       # 8-byte Spill
	jmp	.LBB0_4
.LBB0_4:                                #   in Loop: Header=BB0_1 Depth=1
	movq	-1016(%rbp), %rax       # 8-byte Reload
	movq	%rax, -416(%rbp)
	movq	-408(%rbp), %rdi
.Ltmp2:
	callq	_ZN4llvm8Function3endEv
.Ltmp3:
	movq	%rax, -1024(%rbp)       # 8-byte Spill
	jmp	.LBB0_5
.LBB0_5:                                #   in Loop: Header=BB0_1 Depth=1
	movq	-1024(%rbp), %rax       # 8-byte Reload
	movq	%rax, -440(%rbp)
.LBB0_6:                                #   Parent Loop BB0_1 Depth=1
                                        # =>  This Loop Header: Depth=2
                                        #       Child Loop BB0_24 Depth 3
                                        #       Child Loop BB0_42 Depth 3
                                        #       Child Loop BB0_69 Depth 3
                                        #       Child Loop BB0_79 Depth 3
                                        #         Child Loop BB0_134 Depth 4
                                        #         Child Loop BB0_212 Depth 4
                                        #         Child Loop BB0_260 Depth 4
.Ltmp4:
	leaq	-416(%rbp), %rdi
	leaq	-440(%rbp), %rsi
	callq	_ZN4llvmneERKNS_14ilist_iteratorINS_12ilist_detail12node_optionsINS_10BasicBlockELb0ELb0EvEELb0ELb0EEES7_
.Ltmp5:
	movb	%al, -1025(%rbp)        # 1-byte Spill
	jmp	.LBB0_7
.LBB0_7:                                #   in Loop: Header=BB0_6 Depth=2
	movb	-1025(%rbp), %al        # 1-byte Reload
	testb	$1, %al
	jne	.LBB0_8
	jmp	.LBB0_297
.LBB0_8:                                #   in Loop: Header=BB0_6 Depth=2
.Ltmp238:
	leaq	-416(%rbp), %rdi
	callq	_ZNK4llvm14ilist_iteratorINS_12ilist_detail12node_optionsINS_10BasicBlockELb0ELb0EvEELb0ELb0EEdeEv
.Ltmp239:
	movq	%rax, -1040(%rbp)       # 8-byte Spill
	jmp	.LBB0_9
.LBB0_9:                                #   in Loop: Header=BB0_6 Depth=2
	movq	-1040(%rbp), %rax       # 8-byte Reload
	movq	%rax, -448(%rbp)
	movq	-448(%rbp), %rdi
.Ltmp240:
	callq	_ZN4llvm10BasicBlock13getTerminatorEv
.Ltmp241:
	movq	%rax, -1048(%rbp)       # 8-byte Spill
	jmp	.LBB0_10
.LBB0_10:                               #   in Loop: Header=BB0_6 Depth=2
	movq	-1048(%rbp), %rax       # 8-byte Reload
	movq	%rax, -456(%rbp)
	movq	-456(%rbp), %rdi
.Ltmp242:
	callq	_ZNK4llvm11Instruction16getNumSuccessorsEv
.Ltmp243:
	movl	%eax, -1052(%rbp)       # 4-byte Spill
	jmp	.LBB0_11
.LBB0_11:                               #   in Loop: Header=BB0_6 Depth=2
	movl	-1052(%rbp), %eax       # 4-byte Reload
	movl	%eax, -460(%rbp)
	cmpl	$1, -460(%rbp)
	jne	.LBB0_14
# %bb.12:                               #   in Loop: Header=BB0_6 Depth=2
	movl	-84(%rbp), %eax
	addl	$1, %eax
	movl	%eax, -84(%rbp)
	jmp	.LBB0_20
.LBB0_13:
.Ltmp426:
                                        # kill: def $edx killed $edx killed $rdx
	movq	%rax, -424(%rbp)
	movl	%edx, -428(%rbp)
	leaq	-400(%rbp), %rdi
	callq	_ZNSt3setIPN4llvm14GlobalVariableESt4lessIS2_ESaIS2_EED2Ev
	leaq	-352(%rbp), %rdi
	callq	_ZNSt3setIPN4llvm5ValueESt4lessIS2_ESaIS2_EED2Ev
	jmp	.LBB0_423
.LBB0_14:                               #   in Loop: Header=BB0_6 Depth=2
	cmpl	$2, -460(%rbp)
	jne	.LBB0_16
# %bb.15:                               #   in Loop: Header=BB0_6 Depth=2
	movl	-88(%rbp), %eax
	addl	$1, %eax
	movl	%eax, -88(%rbp)
	jmp	.LBB0_19
.LBB0_16:                               #   in Loop: Header=BB0_6 Depth=2
	cmpl	$2, -460(%rbp)
	jbe	.LBB0_18
# %bb.17:                               #   in Loop: Header=BB0_6 Depth=2
	movl	-92(%rbp), %eax
	addl	$1, %eax
	movl	%eax, -92(%rbp)
.LBB0_18:                               #   in Loop: Header=BB0_6 Depth=2
	jmp	.LBB0_19
.LBB0_19:                               #   in Loop: Header=BB0_6 Depth=2
	jmp	.LBB0_20
.LBB0_20:                               #   in Loop: Header=BB0_6 Depth=2
	movl	$0, -464(%rbp)
	movq	-448(%rbp), %rdi
.Ltmp244:
	callq	_ZN4llvm12predecessorsEPNS_10BasicBlockE
.Ltmp245:
	movq	%rdx, -1064(%rbp)       # 8-byte Spill
	movq	%rax, -1072(%rbp)       # 8-byte Spill
	jmp	.LBB0_21
.LBB0_21:                               #   in Loop: Header=BB0_6 Depth=2
	movq	-1072(%rbp), %rax       # 8-byte Reload
	movq	%rax, -488(%rbp)
	movq	-1064(%rbp), %rcx       # 8-byte Reload
	movq	%rcx, -480(%rbp)
	leaq	-488(%rbp), %rdx
	movq	%rdx, -472(%rbp)
	movq	-472(%rbp), %rdi
.Ltmp246:
	callq	_ZNK4llvm14iterator_rangeINS_12PredIteratorINS_10BasicBlockENS_5Value18user_iterator_implINS_4UserEEEEEE5beginEv
.Ltmp247:
	movq	%rax, -1080(%rbp)       # 8-byte Spill
	jmp	.LBB0_22
.LBB0_22:                               #   in Loop: Header=BB0_6 Depth=2
	movq	-1080(%rbp), %rax       # 8-byte Reload
	movq	%rax, -496(%rbp)
	movq	-472(%rbp), %rdi
.Ltmp248:
	callq	_ZNK4llvm14iterator_rangeINS_12PredIteratorINS_10BasicBlockENS_5Value18user_iterator_implINS_4UserEEEEEE3endEv
.Ltmp249:
	movq	%rax, -1088(%rbp)       # 8-byte Spill
	jmp	.LBB0_23
.LBB0_23:                               #   in Loop: Header=BB0_6 Depth=2
	movq	-1088(%rbp), %rax       # 8-byte Reload
	movq	%rax, -504(%rbp)
.LBB0_24:                               #   Parent Loop BB0_1 Depth=1
                                        #     Parent Loop BB0_6 Depth=2
                                        # =>    This Inner Loop Header: Depth=3
.Ltmp250:
	leaq	-496(%rbp), %rdi
	leaq	-504(%rbp), %rsi
	callq	_ZNK4llvm12PredIteratorINS_10BasicBlockENS_5Value18user_iterator_implINS_4UserEEEEneERKS6_
.Ltmp251:
	movb	%al, -1089(%rbp)        # 1-byte Spill
	jmp	.LBB0_25
.LBB0_25:                               #   in Loop: Header=BB0_24 Depth=3
	movb	-1089(%rbp), %al        # 1-byte Reload
	testb	$1, %al
	jne	.LBB0_26
	jmp	.LBB0_30
.LBB0_26:                               #   in Loop: Header=BB0_24 Depth=3
.Ltmp422:
	leaq	-496(%rbp), %rdi
	callq	_ZNK4llvm12PredIteratorINS_10BasicBlockENS_5Value18user_iterator_implINS_4UserEEEEdeEv
.Ltmp423:
	movq	%rax, -1104(%rbp)       # 8-byte Spill
	jmp	.LBB0_27
.LBB0_27:                               #   in Loop: Header=BB0_24 Depth=3
	movq	-1104(%rbp), %rax       # 8-byte Reload
	movq	%rax, -512(%rbp)
	movl	-464(%rbp), %ecx
	addl	$1, %ecx
	movl	%ecx, -464(%rbp)
# %bb.28:                               #   in Loop: Header=BB0_24 Depth=3
.Ltmp424:
	leaq	-496(%rbp), %rdi
	callq	_ZN4llvm12PredIteratorINS_10BasicBlockENS_5Value18user_iterator_implINS_4UserEEEEppEv
.Ltmp425:
	jmp	.LBB0_29
.LBB0_29:                               #   in Loop: Header=BB0_24 Depth=3
	jmp	.LBB0_24
.LBB0_30:                               #   in Loop: Header=BB0_6 Depth=2
	cmpl	$1, -464(%rbp)
	jne	.LBB0_32
# %bb.31:                               #   in Loop: Header=BB0_6 Depth=2
	movl	-72(%rbp), %eax
	addl	$1, %eax
	movl	%eax, -72(%rbp)
	jmp	.LBB0_38
.LBB0_32:                               #   in Loop: Header=BB0_6 Depth=2
	cmpl	$2, -464(%rbp)
	jne	.LBB0_34
# %bb.33:                               #   in Loop: Header=BB0_6 Depth=2
	movl	-76(%rbp), %eax
	addl	$1, %eax
	movl	%eax, -76(%rbp)
	jmp	.LBB0_37
.LBB0_34:                               #   in Loop: Header=BB0_6 Depth=2
	cmpl	$2, -464(%rbp)
	jbe	.LBB0_36
# %bb.35:                               #   in Loop: Header=BB0_6 Depth=2
	movl	-80(%rbp), %eax
	addl	$1, %eax
	movl	%eax, -80(%rbp)
.LBB0_36:                               #   in Loop: Header=BB0_6 Depth=2
	jmp	.LBB0_37
.LBB0_37:                               #   in Loop: Header=BB0_6 Depth=2
	jmp	.LBB0_38
.LBB0_38:                               #   in Loop: Header=BB0_6 Depth=2
	movq	-448(%rbp), %rsi
.Ltmp252:
	leaq	-552(%rbp), %rdi
	callq	_ZN4llvm10successorsEPNS_10BasicBlockE
.Ltmp253:
	jmp	.LBB0_39
.LBB0_39:                               #   in Loop: Header=BB0_6 Depth=2
	leaq	-552(%rbp), %rax
	movq	%rax, -520(%rbp)
	movq	-520(%rbp), %rdi
.Ltmp254:
	callq	_ZNK4llvm14iterator_rangeINS_12SuccIteratorINS_11InstructionENS_10BasicBlockEEEE5beginEv
.Ltmp255:
	movl	%edx, -1108(%rbp)       # 4-byte Spill
	movq	%rax, -1120(%rbp)       # 8-byte Spill
	jmp	.LBB0_40
.LBB0_40:                               #   in Loop: Header=BB0_6 Depth=2
	movq	-1120(%rbp), %rax       # 8-byte Reload
	movq	%rax, -568(%rbp)
	movl	-1108(%rbp), %ecx       # 4-byte Reload
	movl	%ecx, -560(%rbp)
	movq	-520(%rbp), %rdi
.Ltmp256:
	callq	_ZNK4llvm14iterator_rangeINS_12SuccIteratorINS_11InstructionENS_10BasicBlockEEEE3endEv
.Ltmp257:
	movl	%edx, -1124(%rbp)       # 4-byte Spill
	movq	%rax, -1136(%rbp)       # 8-byte Spill
	jmp	.LBB0_41
.LBB0_41:                               #   in Loop: Header=BB0_6 Depth=2
	movq	-1136(%rbp), %rax       # 8-byte Reload
	movq	%rax, -584(%rbp)
	movl	-1124(%rbp), %ecx       # 4-byte Reload
	movl	%ecx, -576(%rbp)
.LBB0_42:                               #   Parent Loop BB0_1 Depth=1
                                        #     Parent Loop BB0_6 Depth=2
                                        # =>    This Inner Loop Header: Depth=3
.Ltmp258:
	leaq	-568(%rbp), %rdi
	leaq	-584(%rbp), %rsi
	callq	_ZNK4llvm20iterator_facade_baseINS_12SuccIteratorINS_11InstructionENS_10BasicBlockEEESt26random_access_iterator_tagS3_iPS3_S6_EneERKS4_
.Ltmp259:
	movb	%al, -1137(%rbp)        # 1-byte Spill
	jmp	.LBB0_43
.LBB0_43:                               #   in Loop: Header=BB0_42 Depth=3
	movb	-1137(%rbp), %al        # 1-byte Reload
	testb	$1, %al
	jne	.LBB0_44
	jmp	.LBB0_48
.LBB0_44:                               #   in Loop: Header=BB0_42 Depth=3
.Ltmp418:
	leaq	-568(%rbp), %rdi
	callq	_ZNK4llvm12SuccIteratorINS_11InstructionENS_10BasicBlockEEdeEv
.Ltmp419:
	movq	%rax, -1152(%rbp)       # 8-byte Spill
	jmp	.LBB0_45
.LBB0_45:                               #   in Loop: Header=BB0_42 Depth=3
	movq	-1152(%rbp), %rax       # 8-byte Reload
	movq	%rax, -592(%rbp)
	movl	-280(%rbp), %ecx
	addl	$1, %ecx
	movl	%ecx, -280(%rbp)
# %bb.46:                               #   in Loop: Header=BB0_42 Depth=3
.Ltmp420:
	leaq	-568(%rbp), %rdi
	callq	_ZN4llvm20iterator_facade_baseINS_12SuccIteratorINS_11InstructionENS_10BasicBlockEEESt26random_access_iterator_tagS3_iPS3_S6_EppEv
.Ltmp421:
	jmp	.LBB0_47
.LBB0_47:                               #   in Loop: Header=BB0_42 Depth=3
	jmp	.LBB0_42
.LBB0_48:                               #   in Loop: Header=BB0_6 Depth=2
	cmpl	$1, -464(%rbp)
	jne	.LBB0_51
# %bb.49:                               #   in Loop: Header=BB0_6 Depth=2
	cmpl	$1, -460(%rbp)
	jne	.LBB0_51
# %bb.50:                               #   in Loop: Header=BB0_6 Depth=2
	movl	-96(%rbp), %eax
	addl	$1, %eax
	movl	%eax, -96(%rbp)
	jmp	.LBB0_67
.LBB0_51:                               #   in Loop: Header=BB0_6 Depth=2
	cmpl	$1, -464(%rbp)
	jne	.LBB0_54
# %bb.52:                               #   in Loop: Header=BB0_6 Depth=2
	cmpl	$2, -460(%rbp)
	jne	.LBB0_54
# %bb.53:                               #   in Loop: Header=BB0_6 Depth=2
	movl	-100(%rbp), %eax
	addl	$1, %eax
	movl	%eax, -100(%rbp)
	jmp	.LBB0_66
.LBB0_54:                               #   in Loop: Header=BB0_6 Depth=2
	cmpl	$2, -464(%rbp)
	jne	.LBB0_57
# %bb.55:                               #   in Loop: Header=BB0_6 Depth=2
	cmpl	$1, -460(%rbp)
	jne	.LBB0_57
# %bb.56:                               #   in Loop: Header=BB0_6 Depth=2
	movl	-104(%rbp), %eax
	addl	$1, %eax
	movl	%eax, -104(%rbp)
	jmp	.LBB0_65
.LBB0_57:                               #   in Loop: Header=BB0_6 Depth=2
	cmpl	$2, -464(%rbp)
	jne	.LBB0_60
# %bb.58:                               #   in Loop: Header=BB0_6 Depth=2
	cmpl	$2, -460(%rbp)
	jne	.LBB0_60
# %bb.59:                               #   in Loop: Header=BB0_6 Depth=2
	movl	-108(%rbp), %eax
	addl	$1, %eax
	movl	%eax, -108(%rbp)
	jmp	.LBB0_64
.LBB0_60:                               #   in Loop: Header=BB0_6 Depth=2
	cmpl	$2, -464(%rbp)
	jbe	.LBB0_63
# %bb.61:                               #   in Loop: Header=BB0_6 Depth=2
	cmpl	$2, -460(%rbp)
	jbe	.LBB0_63
# %bb.62:                               #   in Loop: Header=BB0_6 Depth=2
	movl	-112(%rbp), %eax
	addl	$1, %eax
	movl	%eax, -112(%rbp)
.LBB0_63:                               #   in Loop: Header=BB0_6 Depth=2
	jmp	.LBB0_64
.LBB0_64:                               #   in Loop: Header=BB0_6 Depth=2
	jmp	.LBB0_65
.LBB0_65:                               #   in Loop: Header=BB0_6 Depth=2
	jmp	.LBB0_66
.LBB0_66:                               #   in Loop: Header=BB0_6 Depth=2
	jmp	.LBB0_67
.LBB0_67:                               #   in Loop: Header=BB0_6 Depth=2
	cmpl	$0, -460(%rbp)
	je	.LBB0_76
# %bb.68:                               #   in Loop: Header=BB0_6 Depth=2
	movl	$0, -596(%rbp)
.LBB0_69:                               #   Parent Loop BB0_1 Depth=1
                                        #     Parent Loop BB0_6 Depth=2
                                        # =>    This Inner Loop Header: Depth=3
	movl	-596(%rbp), %eax
	cmpl	-460(%rbp), %eax
	jae	.LBB0_75
# %bb.70:                               #   in Loop: Header=BB0_69 Depth=3
	movq	-456(%rbp), %rdi
	movl	-596(%rbp), %esi
.Ltmp416:
	xorl	%edx, %edx
	callq	_ZN4llvm14isCriticalEdgeEPKNS_11InstructionEjb
.Ltmp417:
	movb	%al, -1153(%rbp)        # 1-byte Spill
	jmp	.LBB0_71
.LBB0_71:                               #   in Loop: Header=BB0_69 Depth=3
	movb	-1153(%rbp), %al        # 1-byte Reload
	testb	$1, %al
	jne	.LBB0_72
	jmp	.LBB0_73
.LBB0_72:                               #   in Loop: Header=BB0_69 Depth=3
	movl	-272(%rbp), %eax
	addl	$1, %eax
	movl	%eax, -272(%rbp)
.LBB0_73:                               #   in Loop: Header=BB0_69 Depth=3
	jmp	.LBB0_74
.LBB0_74:                               #   in Loop: Header=BB0_69 Depth=3
	movl	-596(%rbp), %eax
	addl	$1, %eax
	movl	%eax, -596(%rbp)
	jmp	.LBB0_69
.LBB0_75:                               #   in Loop: Header=BB0_6 Depth=2
	jmp	.LBB0_76
.LBB0_76:                               #   in Loop: Header=BB0_6 Depth=2
	movl	-68(%rbp), %eax
	addl	$1, %eax
	movl	%eax, -68(%rbp)
	movl	$0, -600(%rbp)
	movl	$0, -604(%rbp)
	movq	-448(%rbp), %rcx
	movq	%rcx, -616(%rbp)
	movq	-616(%rbp), %rdi
.Ltmp260:
	callq	_ZN4llvm10BasicBlock5beginEv
.Ltmp261:
	movq	%rax, -1168(%rbp)       # 8-byte Spill
	jmp	.LBB0_77
.LBB0_77:                               #   in Loop: Header=BB0_6 Depth=2
	movq	-1168(%rbp), %rax       # 8-byte Reload
	movq	%rax, -624(%rbp)
	movq	-616(%rbp), %rdi
.Ltmp262:
	callq	_ZN4llvm10BasicBlock3endEv
.Ltmp263:
	movq	%rax, -1176(%rbp)       # 8-byte Spill
	jmp	.LBB0_78
.LBB0_78:                               #   in Loop: Header=BB0_6 Depth=2
	movq	-1176(%rbp), %rax       # 8-byte Reload
	movq	%rax, -632(%rbp)
.LBB0_79:                               #   Parent Loop BB0_1 Depth=1
                                        #     Parent Loop BB0_6 Depth=2
                                        # =>    This Loop Header: Depth=3
                                        #         Child Loop BB0_134 Depth 4
                                        #         Child Loop BB0_212 Depth 4
                                        #         Child Loop BB0_260 Depth 4
.Ltmp264:
	leaq	-624(%rbp), %rdi
	leaq	-632(%rbp), %rsi
	callq	_ZN4llvmneERKNS_14ilist_iteratorINS_12ilist_detail12node_optionsINS_11InstructionELb0ELb0EvEELb0ELb0EEES7_
.Ltmp265:
	movb	%al, -1177(%rbp)        # 1-byte Spill
	jmp	.LBB0_80
.LBB0_80:                               #   in Loop: Header=BB0_79 Depth=3
	movb	-1177(%rbp), %al        # 1-byte Reload
	testb	$1, %al
	jne	.LBB0_81
	jmp	.LBB0_270
.LBB0_81:                               #   in Loop: Header=BB0_79 Depth=3
.Ltmp270:
	leaq	-624(%rbp), %rdi
	callq	_ZNK4llvm14ilist_iteratorINS_12ilist_detail12node_optionsINS_11InstructionELb0ELb0EvEELb0ELb0EEdeEv
.Ltmp271:
	movq	%rax, -1192(%rbp)       # 8-byte Spill
	jmp	.LBB0_82
.LBB0_82:                               #   in Loop: Header=BB0_79 Depth=3
	movq	-1192(%rbp), %rax       # 8-byte Reload
	movq	%rax, -640(%rbp)
	movq	-640(%rbp), %rdi
.Ltmp272:
	callq	_ZNK4llvm4User14getNumOperandsEv
.Ltmp273:
	movl	%eax, -1196(%rbp)       # 4-byte Spill
	jmp	.LBB0_83
.LBB0_83:                               #   in Loop: Header=BB0_79 Depth=3
	movl	-1196(%rbp), %eax       # 4-byte Reload
	movl	%eax, -644(%rbp)
	movl	$0, -648(%rbp)
	movq	-640(%rbp), %rdi
.Ltmp274:
	callq	_ZNK4llvm5Value7getTypeEv
.Ltmp275:
	movq	%rax, -1208(%rbp)       # 8-byte Spill
	jmp	.LBB0_84
.LBB0_84:                               #   in Loop: Header=BB0_79 Depth=3
	movq	-1208(%rbp), %rax       # 8-byte Reload
	movq	%rax, -656(%rbp)
	movq	-640(%rbp), %rdi
.Ltmp276:
	callq	_ZN4llvm8dyn_castINS_9StoreInstENS_11InstructionEEENS_10cast_rettyIT_PT0_E8ret_typeES6_
.Ltmp277:
	movq	%rax, -1216(%rbp)       # 8-byte Spill
	jmp	.LBB0_85
.LBB0_85:                               #   in Loop: Header=BB0_79 Depth=3
	movq	-1216(%rbp), %rax       # 8-byte Reload
	movq	%rax, -664(%rbp)
	cmpq	$0, -664(%rbp)
	je	.LBB0_100
# %bb.86:                               #   in Loop: Header=BB0_79 Depth=3
	movq	-640(%rbp), %rdi
.Ltmp308:
	xorl	%esi, %esi
	callq	_ZNK4llvm4User10getOperandEj
.Ltmp309:
	movq	%rax, -1224(%rbp)       # 8-byte Spill
	jmp	.LBB0_87
.LBB0_87:                               #   in Loop: Header=BB0_79 Depth=3
	movq	-1224(%rbp), %rax       # 8-byte Reload
	movq	%rax, -672(%rbp)
	movq	-672(%rbp), %rdi
.Ltmp310:
	callq	_ZNK4llvm5Value7getTypeEv
.Ltmp311:
	movq	%rax, -1232(%rbp)       # 8-byte Spill
	jmp	.LBB0_88
.LBB0_88:                               #   in Loop: Header=BB0_79 Depth=3
	movq	-1232(%rbp), %rax       # 8-byte Reload
	movq	%rax, -680(%rbp)
	movq	-680(%rbp), %rdi
.Ltmp312:
	callq	_ZNK4llvm4Type11isPointerTyEv
.Ltmp313:
	movb	%al, -1233(%rbp)        # 1-byte Spill
	jmp	.LBB0_89
.LBB0_89:                               #   in Loop: Header=BB0_79 Depth=3
	movb	-1233(%rbp), %al        # 1-byte Reload
	testb	$1, %al
	jne	.LBB0_90
	jmp	.LBB0_91
.LBB0_90:                               #   in Loop: Header=BB0_79 Depth=3
	movl	-284(%rbp), %eax
	addl	$1, %eax
	movl	%eax, -284(%rbp)
.LBB0_91:                               #   in Loop: Header=BB0_79 Depth=3
.Ltmp314:
	leaq	-672(%rbp), %rdi
	callq	_ZN4llvm3isaINS_8FunctionEPNS_5ValueEEEbRKT0_
.Ltmp315:
	movb	%al, -1234(%rbp)        # 1-byte Spill
	jmp	.LBB0_92
.LBB0_92:                               #   in Loop: Header=BB0_79 Depth=3
	movb	-1234(%rbp), %al        # 1-byte Reload
	testb	$1, %al
	jne	.LBB0_93
	jmp	.LBB0_94
.LBB0_93:                               #   in Loop: Header=BB0_79 Depth=3
	movl	-288(%rbp), %eax
	addl	$1, %eax
	movl	%eax, -288(%rbp)
.LBB0_94:                               #   in Loop: Header=BB0_79 Depth=3
	movq	-680(%rbp), %rdi
.Ltmp316:
	callq	_ZNK4llvm4Type11isPointerTyEv
.Ltmp317:
	movb	%al, -1235(%rbp)        # 1-byte Spill
	jmp	.LBB0_95
.LBB0_95:                               #   in Loop: Header=BB0_79 Depth=3
	movb	-1235(%rbp), %al        # 1-byte Reload
	testb	$1, %al
	jne	.LBB0_96
	jmp	.LBB0_99
.LBB0_96:                               #   in Loop: Header=BB0_79 Depth=3
.Ltmp318:
	leaq	-672(%rbp), %rdi
	callq	_ZN4llvm3isaINS_11InstructionEPNS_5ValueEEEbRKT0_
.Ltmp319:
	movb	%al, -1236(%rbp)        # 1-byte Spill
	jmp	.LBB0_97
.LBB0_97:                               #   in Loop: Header=BB0_79 Depth=3
	movb	-1236(%rbp), %al        # 1-byte Reload
	testb	$1, %al
	jne	.LBB0_98
	jmp	.LBB0_99
.LBB0_98:                               #   in Loop: Header=BB0_79 Depth=3
	movl	-268(%rbp), %eax
	addl	$1, %eax
	movl	%eax, -268(%rbp)
.LBB0_99:                               #   in Loop: Header=BB0_79 Depth=3
	jmp	.LBB0_155
.LBB0_100:                              #   in Loop: Header=BB0_79 Depth=3
	movq	-640(%rbp), %rdi
.Ltmp278:
	callq	_ZN4llvm8dyn_castINS_10BranchInstENS_11InstructionEEENS_10cast_rettyIT_PT0_E8ret_typeES6_
.Ltmp279:
	movq	%rax, -1248(%rbp)       # 8-byte Spill
	jmp	.LBB0_101
.LBB0_101:                              #   in Loop: Header=BB0_79 Depth=3
	movq	-1248(%rbp), %rax       # 8-byte Reload
	movq	%rax, -688(%rbp)
	cmpq	$0, -688(%rbp)
	je	.LBB0_110
# %bb.102:                              #   in Loop: Header=BB0_79 Depth=3
	movq	-688(%rbp), %rdi
.Ltmp304:
	callq	_ZNK4llvm10BranchInst13isConditionalEv
.Ltmp305:
	movb	%al, -1249(%rbp)        # 1-byte Spill
	jmp	.LBB0_103
.LBB0_103:                              #   in Loop: Header=BB0_79 Depth=3
	movb	-1249(%rbp), %al        # 1-byte Reload
	testb	$1, %al
	jne	.LBB0_104
	jmp	.LBB0_105
.LBB0_104:                              #   in Loop: Header=BB0_79 Depth=3
	movl	-192(%rbp), %eax
	addl	$1, %eax
	movl	%eax, -192(%rbp)
	jmp	.LBB0_109
.LBB0_105:                              #   in Loop: Header=BB0_79 Depth=3
	movq	-688(%rbp), %rdi
.Ltmp306:
	callq	_ZNK4llvm10BranchInst15isUnconditionalEv
.Ltmp307:
	movb	%al, -1250(%rbp)        # 1-byte Spill
	jmp	.LBB0_106
.LBB0_106:                              #   in Loop: Header=BB0_79 Depth=3
	movb	-1250(%rbp), %al        # 1-byte Reload
	testb	$1, %al
	jne	.LBB0_107
	jmp	.LBB0_108
.LBB0_107:                              #   in Loop: Header=BB0_79 Depth=3
	movl	-196(%rbp), %eax
	addl	$1, %eax
	movl	%eax, -196(%rbp)
.LBB0_108:                              #   in Loop: Header=BB0_79 Depth=3
	jmp	.LBB0_109
.LBB0_109:                              #   in Loop: Header=BB0_79 Depth=3
	jmp	.LBB0_154
.LBB0_110:                              #   in Loop: Header=BB0_79 Depth=3
	movq	-640(%rbp), %rdi
.Ltmp280:
	callq	_ZN4llvm8dyn_castINS_10SwitchInstENS_11InstructionEEENS_10cast_rettyIT_PT0_E8ret_typeES6_
.Ltmp281:
	movq	%rax, -1264(%rbp)       # 8-byte Spill
	jmp	.LBB0_111
.LBB0_111:                              #   in Loop: Header=BB0_79 Depth=3
	movq	-1264(%rbp), %rax       # 8-byte Reload
	movq	%rax, -696(%rbp)
	cmpq	$0, -696(%rbp)
	je	.LBB0_113
# %bb.112:                              #   in Loop: Header=BB0_79 Depth=3
	movl	-132(%rbp), %eax
	addl	$1, %eax
	movl	%eax, -132(%rbp)
	jmp	.LBB0_153
.LBB0_113:                              #   in Loop: Header=BB0_79 Depth=3
	movq	-640(%rbp), %rdi
.Ltmp282:
	callq	_ZN4llvm8dyn_castINS_8CallInstENS_11InstructionEEENS_10cast_rettyIT_PT0_E8ret_typeES6_
.Ltmp283:
	movq	%rax, -1272(%rbp)       # 8-byte Spill
	jmp	.LBB0_114
.LBB0_114:                              #   in Loop: Header=BB0_79 Depth=3
	movq	-1272(%rbp), %rax       # 8-byte Reload
	movq	%rax, -704(%rbp)
	cmpq	$0, -704(%rbp)
	je	.LBB0_148
# %bb.115:                              #   in Loop: Header=BB0_79 Depth=3
	movq	-704(%rbp), %rdi
.Ltmp286:
	callq	_ZNK4llvm8CallBase17getCalledFunctionEv
.Ltmp287:
	movq	%rax, -1280(%rbp)       # 8-byte Spill
	jmp	.LBB0_116
.LBB0_116:                              #   in Loop: Header=BB0_79 Depth=3
	movq	-1280(%rbp), %rax       # 8-byte Reload
	movq	%rax, -712(%rbp)
	movq	-704(%rbp), %rdi
.Ltmp288:
	callq	_ZNK4llvm5Value7getTypeEv
.Ltmp289:
	movq	%rax, -1288(%rbp)       # 8-byte Spill
	jmp	.LBB0_117
.LBB0_117:                              #   in Loop: Header=BB0_79 Depth=3
	movq	-1288(%rbp), %rax       # 8-byte Reload
	movq	%rax, -720(%rbp)
	movq	-720(%rbp), %rdi
.Ltmp290:
	callq	_ZNK4llvm4Type11isIntegerTyEv
.Ltmp291:
	movb	%al, -1289(%rbp)        # 1-byte Spill
	jmp	.LBB0_118
.LBB0_118:                              #   in Loop: Header=BB0_79 Depth=3
	movb	-1289(%rbp), %al        # 1-byte Reload
	testb	$1, %al
	jne	.LBB0_119
	jmp	.LBB0_120
.LBB0_119:                              #   in Loop: Header=BB0_79 Depth=3
	movl	-176(%rbp), %eax
	addl	$1, %eax
	movl	%eax, -176(%rbp)
	jmp	.LBB0_124
.LBB0_120:                              #   in Loop: Header=BB0_79 Depth=3
	movq	-720(%rbp), %rdi
.Ltmp292:
	callq	_ZNK4llvm4Type11isPointerTyEv
.Ltmp293:
	movb	%al, -1290(%rbp)        # 1-byte Spill
	jmp	.LBB0_121
.LBB0_121:                              #   in Loop: Header=BB0_79 Depth=3
	movb	-1290(%rbp), %al        # 1-byte Reload
	testb	$1, %al
	jne	.LBB0_122
	jmp	.LBB0_123
.LBB0_122:                              #   in Loop: Header=BB0_79 Depth=3
	movl	-168(%rbp), %eax
	addl	$1, %eax
	movl	%eax, -168(%rbp)
.LBB0_123:                              #   in Loop: Header=BB0_79 Depth=3
	jmp	.LBB0_124
.LBB0_124:                              #   in Loop: Header=BB0_79 Depth=3
	cmpq	$0, -712(%rbp)
	jne	.LBB0_130
# %bb.125:                              #   in Loop: Header=BB0_79 Depth=3
	movq	-704(%rbp), %rdi
.Ltmp294:
	callq	_ZNK4llvm8CallBase14isIndirectCallEv
.Ltmp295:
	movb	%al, -1291(%rbp)        # 1-byte Spill
	jmp	.LBB0_126
.LBB0_126:                              #   in Loop: Header=BB0_79 Depth=3
	movb	-1291(%rbp), %al        # 1-byte Reload
	testb	$1, %al
	jne	.LBB0_127
	jmp	.LBB0_128
.LBB0_127:                              #   in Loop: Header=BB0_79 Depth=3
	movl	-188(%rbp), %eax
	addl	$1, %eax
	movl	%eax, -188(%rbp)
	jmp	.LBB0_129
.LBB0_128:                              #   in Loop: Header=BB0_79 Depth=3
	movl	-180(%rbp), %eax
	addl	$1, %eax
	movl	%eax, -180(%rbp)
.LBB0_129:                              #   in Loop: Header=BB0_79 Depth=3
	jmp	.LBB0_131
.LBB0_130:                              #   in Loop: Header=BB0_79 Depth=3
	movl	-180(%rbp), %eax
	addl	$1, %eax
	movl	%eax, -180(%rbp)
.LBB0_131:                              #   in Loop: Header=BB0_79 Depth=3
	movl	$0, -724(%rbp)
	cmpq	$0, -712(%rbp)
	je	.LBB0_143
# %bb.132:                              #   in Loop: Header=BB0_79 Depth=3
	movq	-704(%rbp), %rdi
.Ltmp296:
	callq	_ZNK4llvm8CallBase17getNumArgOperandsEv
.Ltmp297:
	movl	%eax, -1296(%rbp)       # 4-byte Spill
	jmp	.LBB0_133
.LBB0_133:                              #   in Loop: Header=BB0_79 Depth=3
	movl	-1296(%rbp), %eax       # 4-byte Reload
	movl	%eax, -728(%rbp)
	movl	$0, -732(%rbp)
.LBB0_134:                              #   Parent Loop BB0_1 Depth=1
                                        #     Parent Loop BB0_6 Depth=2
                                        #       Parent Loop BB0_79 Depth=3
                                        # =>      This Inner Loop Header: Depth=4
	movl	-732(%rbp), %eax
	cmpl	-728(%rbp), %eax
	jae	.LBB0_142
# %bb.135:                              #   in Loop: Header=BB0_134 Depth=4
	movq	-704(%rbp), %rdi
	movl	-732(%rbp), %esi
.Ltmp298:
	callq	_ZNK4llvm8CallBase13getArgOperandEj
.Ltmp299:
	movq	%rax, -1304(%rbp)       # 8-byte Spill
	jmp	.LBB0_136
.LBB0_136:                              #   in Loop: Header=BB0_134 Depth=4
.Ltmp300:
	movq	-1304(%rbp), %rdi       # 8-byte Reload
	callq	_ZNK4llvm5Value7getTypeEv
.Ltmp301:
	movq	%rax, -1312(%rbp)       # 8-byte Spill
	jmp	.LBB0_137
.LBB0_137:                              #   in Loop: Header=BB0_134 Depth=4
	movq	-1312(%rbp), %rax       # 8-byte Reload
	movq	%rax, -744(%rbp)
	movq	-744(%rbp), %rdi
.Ltmp302:
	callq	_ZNK4llvm4Type11isPointerTyEv
.Ltmp303:
	movb	%al, -1313(%rbp)        # 1-byte Spill
	jmp	.LBB0_138
.LBB0_138:                              #   in Loop: Header=BB0_134 Depth=4
	movb	-1313(%rbp), %al        # 1-byte Reload
	testb	$1, %al
	jne	.LBB0_139
	jmp	.LBB0_140
.LBB0_139:                              #   in Loop: Header=BB0_134 Depth=4
	movl	-648(%rbp), %eax
	addl	$1, %eax
	movl	%eax, -648(%rbp)
.LBB0_140:                              #   in Loop: Header=BB0_134 Depth=4
	movl	-724(%rbp), %eax
	addl	$1, %eax
	movl	%eax, -724(%rbp)
# %bb.141:                              #   in Loop: Header=BB0_134 Depth=4
	movl	-732(%rbp), %eax
	addl	$1, %eax
	movl	%eax, -732(%rbp)
	jmp	.LBB0_134
.LBB0_142:                              #   in Loop: Header=BB0_79 Depth=3
	jmp	.LBB0_143
.LBB0_143:                              #   in Loop: Header=BB0_79 Depth=3
	cmpl	$0, -648(%rbp)
	je	.LBB0_145
# %bb.144:                              #   in Loop: Header=BB0_79 Depth=3
	movl	-184(%rbp), %eax
	addl	$1, %eax
	movl	%eax, -184(%rbp)
.LBB0_145:                              #   in Loop: Header=BB0_79 Depth=3
	cmpl	$4, -724(%rbp)
	jbe	.LBB0_147
# %bb.146:                              #   in Loop: Header=BB0_79 Depth=3
	movl	-172(%rbp), %eax
	addl	$1, %eax
	movl	%eax, -172(%rbp)
.LBB0_147:                              #   in Loop: Header=BB0_79 Depth=3
	jmp	.LBB0_152
.LBB0_148:                              #   in Loop: Header=BB0_79 Depth=3
	movq	-640(%rbp), %rdi
.Ltmp284:
	callq	_ZN4llvm8dyn_castINS_10InvokeInstENS_11InstructionEEENS_10cast_rettyIT_PT0_E8ret_typeES6_
.Ltmp285:
	movq	%rax, -1328(%rbp)       # 8-byte Spill
	jmp	.LBB0_149
.LBB0_149:                              #   in Loop: Header=BB0_79 Depth=3
	movq	-1328(%rbp), %rax       # 8-byte Reload
	movq	%rax, -752(%rbp)
	cmpq	$0, -752(%rbp)
	je	.LBB0_151
# %bb.150:                              #   in Loop: Header=BB0_79 Depth=3
	movl	-276(%rbp), %eax
	addl	$1, %eax
	movl	%eax, -276(%rbp)
.LBB0_151:                              #   in Loop: Header=BB0_79 Depth=3
	jmp	.LBB0_152
.LBB0_152:                              #   in Loop: Header=BB0_79 Depth=3
	jmp	.LBB0_153
.LBB0_153:                              #   in Loop: Header=BB0_79 Depth=3
	jmp	.LBB0_154
.LBB0_154:                              #   in Loop: Header=BB0_79 Depth=3
	jmp	.LBB0_155
.LBB0_155:                              #   in Loop: Header=BB0_79 Depth=3
	movq	-640(%rbp), %rdi
.Ltmp320:
	callq	_ZN4llvm8dyn_castINS_13UnaryOperatorENS_11InstructionEEENS_10cast_rettyIT_PT0_E8ret_typeES6_
.Ltmp321:
	movq	%rax, -1336(%rbp)       # 8-byte Spill
	jmp	.LBB0_156
.LBB0_156:                              #   in Loop: Header=BB0_79 Depth=3
	movq	-1336(%rbp), %rax       # 8-byte Reload
	movq	%rax, -760(%rbp)
	cmpq	$0, -760(%rbp)
	je	.LBB0_158
# %bb.157:                              #   in Loop: Header=BB0_79 Depth=3
	movl	-136(%rbp), %eax
	addl	$1, %eax
	movl	%eax, -136(%rbp)
	jmp	.LBB0_190
.LBB0_158:                              #   in Loop: Header=BB0_79 Depth=3
	movq	-640(%rbp), %rdi
.Ltmp322:
	callq	_ZN4llvm8dyn_castINS_14BinaryOperatorENS_11InstructionEEENS_10cast_rettyIT_PT0_E8ret_typeES6_
.Ltmp323:
	movq	%rax, -1344(%rbp)       # 8-byte Spill
	jmp	.LBB0_159
.LBB0_159:                              #   in Loop: Header=BB0_79 Depth=3
	movq	-1344(%rbp), %rax       # 8-byte Reload
	movq	%rax, -768(%rbp)
	cmpq	$0, -768(%rbp)
	je	.LBB0_189
# %bb.160:                              #   in Loop: Header=BB0_79 Depth=3
	movq	-768(%rbp), %rdi
.Ltmp324:
	xorl	%esi, %esi
	callq	_ZNK4llvm14BinaryOperator10getOperandEj
.Ltmp325:
	movq	%rax, -1352(%rbp)       # 8-byte Spill
	jmp	.LBB0_161
.LBB0_161:                              #   in Loop: Header=BB0_79 Depth=3
	movq	-1352(%rbp), %rax       # 8-byte Reload
	movq	%rax, -776(%rbp)
	movq	-768(%rbp), %rdi
.Ltmp326:
	movl	$1, %esi
	callq	_ZNK4llvm14BinaryOperator10getOperandEj
.Ltmp327:
	movq	%rax, -1360(%rbp)       # 8-byte Spill
	jmp	.LBB0_162
.LBB0_162:                              #   in Loop: Header=BB0_79 Depth=3
	movq	-1360(%rbp), %rax       # 8-byte Reload
	movq	%rax, -784(%rbp)
	movq	-768(%rbp), %rdi
.Ltmp328:
	xorl	%esi, %esi
	callq	_ZNK4llvm14BinaryOperator10getOperandEj
.Ltmp329:
	movq	%rax, -1368(%rbp)       # 8-byte Spill
	jmp	.LBB0_163
.LBB0_163:                              #   in Loop: Header=BB0_79 Depth=3
.Ltmp330:
	movq	-1368(%rbp), %rdi       # 8-byte Reload
	callq	_ZNK4llvm5Value7getTypeEv
.Ltmp331:
	movq	%rax, -1376(%rbp)       # 8-byte Spill
	jmp	.LBB0_164
.LBB0_164:                              #   in Loop: Header=BB0_79 Depth=3
	movq	-1376(%rbp), %rax       # 8-byte Reload
	movq	%rax, -792(%rbp)
	movq	-768(%rbp), %rdi
.Ltmp332:
	movl	$1, %esi
	callq	_ZNK4llvm14BinaryOperator10getOperandEj
.Ltmp333:
	movq	%rax, -1384(%rbp)       # 8-byte Spill
	jmp	.LBB0_165
.LBB0_165:                              #   in Loop: Header=BB0_79 Depth=3
.Ltmp334:
	movq	-1384(%rbp), %rdi       # 8-byte Reload
	callq	_ZNK4llvm5Value7getTypeEv
.Ltmp335:
	movq	%rax, -1392(%rbp)       # 8-byte Spill
	jmp	.LBB0_166
.LBB0_166:                              #   in Loop: Header=BB0_79 Depth=3
	movq	-1392(%rbp), %rax       # 8-byte Reload
	movq	%rax, -800(%rbp)
	movq	-792(%rbp), %rdi
.Ltmp336:
	callq	_ZNK4llvm4Type11isIntegerTyEv
.Ltmp337:
	movb	%al, -1393(%rbp)        # 1-byte Spill
	jmp	.LBB0_167
.LBB0_167:                              #   in Loop: Header=BB0_79 Depth=3
	movb	-1393(%rbp), %al        # 1-byte Reload
	testb	$1, %al
	jne	.LBB0_168
	jmp	.LBB0_171
.LBB0_168:                              #   in Loop: Header=BB0_79 Depth=3
	movq	-800(%rbp), %rdi
.Ltmp338:
	callq	_ZNK4llvm4Type11isIntegerTyEv
.Ltmp339:
	movb	%al, -1394(%rbp)        # 1-byte Spill
	jmp	.LBB0_169
.LBB0_169:                              #   in Loop: Header=BB0_79 Depth=3
	movb	-1394(%rbp), %al        # 1-byte Reload
	testb	$1, %al
	jne	.LBB0_170
	jmp	.LBB0_171
.LBB0_170:                              #   in Loop: Header=BB0_79 Depth=3
	movl	-120(%rbp), %eax
	addl	$1, %eax
	movl	%eax, -120(%rbp)
	jmp	.LBB0_183
.LBB0_171:                              #   in Loop: Header=BB0_79 Depth=3
	movq	-792(%rbp), %rdi
.Ltmp340:
	callq	_ZNK4llvm4Type17isFloatingPointTyEv
.Ltmp341:
	movb	%al, -1395(%rbp)        # 1-byte Spill
	jmp	.LBB0_172
.LBB0_172:                              #   in Loop: Header=BB0_79 Depth=3
	movb	-1395(%rbp), %al        # 1-byte Reload
	testb	$1, %al
	jne	.LBB0_173
	jmp	.LBB0_176
.LBB0_173:                              #   in Loop: Header=BB0_79 Depth=3
	movq	-800(%rbp), %rdi
.Ltmp342:
	callq	_ZNK4llvm4Type17isFloatingPointTyEv
.Ltmp343:
	movb	%al, -1396(%rbp)        # 1-byte Spill
	jmp	.LBB0_174
.LBB0_174:                              #   in Loop: Header=BB0_79 Depth=3
	movb	-1396(%rbp), %al        # 1-byte Reload
	testb	$1, %al
	jne	.LBB0_175
	jmp	.LBB0_176
.LBB0_175:                              #   in Loop: Header=BB0_79 Depth=3
	movl	-124(%rbp), %eax
	addl	$1, %eax
	movl	%eax, -124(%rbp)
	jmp	.LBB0_182
.LBB0_176:                              #   in Loop: Header=BB0_79 Depth=3
	movq	-792(%rbp), %rdi
.Ltmp344:
	callq	_ZNK4llvm4Type11isPointerTyEv
.Ltmp345:
	movb	%al, -1397(%rbp)        # 1-byte Spill
	jmp	.LBB0_177
.LBB0_177:                              #   in Loop: Header=BB0_79 Depth=3
	movb	-1397(%rbp), %al        # 1-byte Reload
	testb	$1, %al
	jne	.LBB0_180
	jmp	.LBB0_178
.LBB0_178:                              #   in Loop: Header=BB0_79 Depth=3
	movq	-800(%rbp), %rdi
.Ltmp346:
	callq	_ZNK4llvm4Type11isPointerTyEv
.Ltmp347:
	movb	%al, -1398(%rbp)        # 1-byte Spill
	jmp	.LBB0_179
.LBB0_179:                              #   in Loop: Header=BB0_79 Depth=3
	movb	-1398(%rbp), %al        # 1-byte Reload
	testb	$1, %al
	jne	.LBB0_180
	jmp	.LBB0_181
.LBB0_180:                              #   in Loop: Header=BB0_79 Depth=3
	movl	-140(%rbp), %eax
	addl	$1, %eax
	movl	%eax, -140(%rbp)
.LBB0_181:                              #   in Loop: Header=BB0_79 Depth=3
	jmp	.LBB0_182
.LBB0_182:                              #   in Loop: Header=BB0_79 Depth=3
	jmp	.LBB0_183
.LBB0_183:                              #   in Loop: Header=BB0_79 Depth=3
.Ltmp348:
	leaq	-776(%rbp), %rdi
	callq	_ZN4llvm3isaINS_11ConstantIntEPNS_5ValueEEEbRKT0_
.Ltmp349:
	movb	%al, -1399(%rbp)        # 1-byte Spill
	jmp	.LBB0_184
.LBB0_184:                              #   in Loop: Header=BB0_79 Depth=3
	movb	-1399(%rbp), %al        # 1-byte Reload
	testb	$1, %al
	jne	.LBB0_187
	jmp	.LBB0_185
.LBB0_185:                              #   in Loop: Header=BB0_79 Depth=3
.Ltmp350:
	leaq	-784(%rbp), %rdi
	callq	_ZN4llvm3isaINS_11ConstantIntEPNS_5ValueEEEbRKT0_
.Ltmp351:
	movb	%al, -1400(%rbp)        # 1-byte Spill
	jmp	.LBB0_186
.LBB0_186:                              #   in Loop: Header=BB0_79 Depth=3
	movb	-1400(%rbp), %al        # 1-byte Reload
	testb	$1, %al
	jne	.LBB0_187
	jmp	.LBB0_188
.LBB0_187:                              #   in Loop: Header=BB0_79 Depth=3
	movl	-144(%rbp), %eax
	addl	$1, %eax
	movl	%eax, -144(%rbp)
.LBB0_188:                              #   in Loop: Header=BB0_79 Depth=3
	jmp	.LBB0_189
.LBB0_189:                              #   in Loop: Header=BB0_79 Depth=3
	jmp	.LBB0_190
.LBB0_190:                              #   in Loop: Header=BB0_79 Depth=3
	movq	-640(%rbp), %rax
	movq	%rax, -808(%rbp)
.Ltmp352:
	leaq	-808(%rbp), %rdi
	callq	_ZN4llvm3isaINS_7PHINodeEPNS_11InstructionEEEbRKT0_
.Ltmp353:
	movb	%al, -1401(%rbp)        # 1-byte Spill
	jmp	.LBB0_191
.LBB0_191:                              #   in Loop: Header=BB0_79 Depth=3
	movb	-1401(%rbp), %al        # 1-byte Reload
	testb	$1, %al
	jne	.LBB0_192
	jmp	.LBB0_194
.LBB0_192:                              #   in Loop: Header=BB0_79 Depth=3
	movq	-640(%rbp), %rdi
.Ltmp354:
	callq	_ZNK4llvm4User14getNumOperandsEv
.Ltmp355:
	movl	%eax, -1408(%rbp)       # 4-byte Spill
	jmp	.LBB0_193
.LBB0_193:                              #   in Loop: Header=BB0_79 Depth=3
	movl	-1408(%rbp), %eax       # 4-byte Reload
	movl	%eax, -812(%rbp)
	movl	-812(%rbp), %ecx
	addl	-604(%rbp), %ecx
	movl	%ecx, -604(%rbp)
	movl	-812(%rbp), %ecx
	addl	-296(%rbp), %ecx
	movl	%ecx, -296(%rbp)
	movl	-600(%rbp), %ecx
	addl	$1, %ecx
	movl	%ecx, -600(%rbp)
	movl	-300(%rbp), %ecx
	addl	$1, %ecx
	movl	%ecx, -300(%rbp)
.LBB0_194:                              #   in Loop: Header=BB0_79 Depth=3
	movq	-656(%rbp), %rdi
.Ltmp356:
	callq	_ZNK4llvm4Type8isVoidTyEv
.Ltmp357:
	movb	%al, -1409(%rbp)        # 1-byte Spill
	jmp	.LBB0_195
.LBB0_195:                              #   in Loop: Header=BB0_79 Depth=3
	movb	-1409(%rbp), %al        # 1-byte Reload
	andb	$1, %al
	movzbl	%al, %ecx
	cmpl	$0, %ecx
	jne	.LBB0_206
# %bb.196:                              #   in Loop: Header=BB0_79 Depth=3
	movl	-116(%rbp), %eax
	addl	$1, %eax
	movl	%eax, -116(%rbp)
	cmpl	$2, -644(%rbp)
	jne	.LBB0_202
# %bb.197:                              #   in Loop: Header=BB0_79 Depth=3
	movq	-640(%rbp), %rdi
.Ltmp358:
	xorl	%esi, %esi
	callq	_ZNK4llvm4User10getOperandEj
.Ltmp359:
	movq	%rax, -1424(%rbp)       # 8-byte Spill
	jmp	.LBB0_198
.LBB0_198:                              #   in Loop: Header=BB0_79 Depth=3
.Ltmp360:
	movq	-1424(%rbp), %rdi       # 8-byte Reload
	callq	_ZN4llvm8dyn_castINS_11ConstantIntENS_5ValueEEENS_10cast_rettyIT_PT0_E8ret_typeES6_
.Ltmp361:
	movq	%rax, -1432(%rbp)       # 8-byte Spill
	jmp	.LBB0_199
.LBB0_199:                              #   in Loop: Header=BB0_79 Depth=3
	movq	-1432(%rbp), %rax       # 8-byte Reload
	movq	%rax, -824(%rbp)
	cmpq	$0, -824(%rbp)
	je	.LBB0_201
# %bb.200:                              #   in Loop: Header=BB0_79 Depth=3
	movl	-148(%rbp), %eax
	addl	$1, %eax
	movl	%eax, -148(%rbp)
.LBB0_201:                              #   in Loop: Header=BB0_79 Depth=3
	jmp	.LBB0_202
.LBB0_202:                              #   in Loop: Header=BB0_79 Depth=3
	movq	-656(%rbp), %rdi
.Ltmp362:
	callq	_ZNK4llvm4Type11isPointerTyEv
.Ltmp363:
	movb	%al, -1433(%rbp)        # 1-byte Spill
	jmp	.LBB0_203
.LBB0_203:                              #   in Loop: Header=BB0_79 Depth=3
	movb	-1433(%rbp), %al        # 1-byte Reload
	testb	$1, %al
	jne	.LBB0_204
	jmp	.LBB0_205
.LBB0_204:                              #   in Loop: Header=BB0_79 Depth=3
	movl	-248(%rbp), %eax
	addl	$1, %eax
	movl	%eax, -248(%rbp)
.LBB0_205:                              #   in Loop: Header=BB0_79 Depth=3
	jmp	.LBB0_206
.LBB0_206:                              #   in Loop: Header=BB0_79 Depth=3
	movq	-640(%rbp), %rax
	movq	%rax, -832(%rbp)
.Ltmp364:
	leaq	-832(%rbp), %rdi
	callq	_ZN4llvm3isaINS_10AllocaInstEPNS_11InstructionEEEbRKT0_
.Ltmp365:
	movb	%al, -1434(%rbp)        # 1-byte Spill
	jmp	.LBB0_207
.LBB0_207:                              #   in Loop: Header=BB0_79 Depth=3
	movb	-1434(%rbp), %al        # 1-byte Reload
	andb	$1, %al
	movzbl	%al, %ecx
	cmpl	$0, %ecx
	jne	.LBB0_255
# %bb.208:                              #   in Loop: Header=BB0_79 Depth=3
	movq	-640(%rbp), %rdi
.Ltmp366:
	callq	_ZN4llvm4User8operandsEv
.Ltmp367:
	movq	%rdx, -1448(%rbp)       # 8-byte Spill
	movq	%rax, -1456(%rbp)       # 8-byte Spill
	jmp	.LBB0_209
.LBB0_209:                              #   in Loop: Header=BB0_79 Depth=3
	movq	-1456(%rbp), %rax       # 8-byte Reload
	movq	%rax, -856(%rbp)
	movq	-1448(%rbp), %rcx       # 8-byte Reload
	movq	%rcx, -848(%rbp)
	leaq	-856(%rbp), %rdx
	movq	%rdx, -840(%rbp)
	movq	-840(%rbp), %rdi
.Ltmp368:
	callq	_ZNK4llvm14iterator_rangeIPNS_3UseEE5beginEv
.Ltmp369:
	movq	%rax, -1464(%rbp)       # 8-byte Spill
	jmp	.LBB0_210
.LBB0_210:                              #   in Loop: Header=BB0_79 Depth=3
	movq	-1464(%rbp), %rax       # 8-byte Reload
	movq	%rax, -864(%rbp)
	movq	-840(%rbp), %rdi
.Ltmp370:
	callq	_ZNK4llvm14iterator_rangeIPNS_3UseEE3endEv
.Ltmp371:
	movq	%rax, -1472(%rbp)       # 8-byte Spill
	jmp	.LBB0_211
.LBB0_211:                              #   in Loop: Header=BB0_79 Depth=3
	movq	-1472(%rbp), %rax       # 8-byte Reload
	movq	%rax, -872(%rbp)
.LBB0_212:                              #   Parent Loop BB0_1 Depth=1
                                        #     Parent Loop BB0_6 Depth=2
                                        #       Parent Loop BB0_79 Depth=3
                                        # =>      This Inner Loop Header: Depth=4
	movq	-864(%rbp), %rax
	cmpq	-872(%rbp), %rax
	je	.LBB0_254
# %bb.213:                              #   in Loop: Header=BB0_212 Depth=4
	movq	-864(%rbp), %rax
	movq	%rax, -880(%rbp)
	movq	-880(%rbp), %rdi
.Ltmp382:
	callq	_ZN4llvm3isaINS_11InstructionENS_3UseEEEbRKT0_
.Ltmp383:
	movb	%al, -1473(%rbp)        # 1-byte Spill
	jmp	.LBB0_214
.LBB0_214:                              #   in Loop: Header=BB0_212 Depth=4
	movb	-1473(%rbp), %al        # 1-byte Reload
	testb	$1, %al
	jne	.LBB0_215
	jmp	.LBB0_218
.LBB0_215:                              #   in Loop: Header=BB0_212 Depth=4
	movq	-880(%rbp), %rdi
.Ltmp384:
	callq	_ZNK4llvm3UsecvPNS_5ValueEEv
.Ltmp385:
	movq	%rax, -1488(%rbp)       # 8-byte Spill
	jmp	.LBB0_216
.LBB0_216:                              #   in Loop: Header=BB0_212 Depth=4
	movq	-1488(%rbp), %rax       # 8-byte Reload
	movq	%rax, -888(%rbp)
.Ltmp386:
	leaq	-352(%rbp), %rdi
	leaq	-888(%rbp), %rsi
	callq	_ZNSt3setIPN4llvm5ValueESt4lessIS2_ESaIS2_EE6insertEOS2_
.Ltmp387:
	movb	%dl, -1489(%rbp)        # 1-byte Spill
	movq	%rax, -1504(%rbp)       # 8-byte Spill
	jmp	.LBB0_217
.LBB0_217:                              #   in Loop: Header=BB0_212 Depth=4
	movq	-1504(%rbp), %rax       # 8-byte Reload
	movq	%rax, -904(%rbp)
	movb	-1489(%rbp), %cl        # 1-byte Reload
	movb	%cl, -896(%rbp)
	movl	-252(%rbp), %edx
	addl	$1, %edx
	movl	%edx, -252(%rbp)
.LBB0_218:                              #   in Loop: Header=BB0_212 Depth=4
	movq	-880(%rbp), %rdi
.Ltmp388:
	callq	_ZN4llvm8dyn_castINS_11ConstantIntENS_3UseEEENS_10cast_rettyIT_T0_E8ret_typeERS5_
.Ltmp389:
	movq	%rax, -1512(%rbp)       # 8-byte Spill
	jmp	.LBB0_219
.LBB0_219:                              #   in Loop: Header=BB0_212 Depth=4
	movq	-1512(%rbp), %rax       # 8-byte Reload
	movq	%rax, -912(%rbp)
	cmpq	$0, -912(%rbp)
	je	.LBB0_240
# %bb.220:                              #   in Loop: Header=BB0_212 Depth=4
	movq	-912(%rbp), %rdi
.Ltmp390:
	callq	_ZNK4llvm11ConstantInt7getTypeEv
.Ltmp391:
	movq	%rax, -1520(%rbp)       # 8-byte Spill
	jmp	.LBB0_221
.LBB0_221:                              #   in Loop: Header=BB0_212 Depth=4
	movq	-1520(%rbp), %rax       # 8-byte Reload
	movq	%rax, -920(%rbp)
	movq	-920(%rbp), %rdi
.Ltmp392:
	movl	$32, %esi
	callq	_ZNK4llvm4Type11isIntegerTyEj
.Ltmp393:
	movb	%al, -1521(%rbp)        # 1-byte Spill
	jmp	.LBB0_222
.LBB0_222:                              #   in Loop: Header=BB0_212 Depth=4
	movb	-1521(%rbp), %al        # 1-byte Reload
	testb	$1, %al
	jne	.LBB0_223
	jmp	.LBB0_224
.LBB0_223:                              #   in Loop: Header=BB0_212 Depth=4
	movl	-232(%rbp), %eax
	addl	$1, %eax
	movl	%eax, -232(%rbp)
	jmp	.LBB0_228
.LBB0_224:                              #   in Loop: Header=BB0_212 Depth=4
	movq	-920(%rbp), %rdi
.Ltmp394:
	movl	$64, %esi
	callq	_ZNK4llvm4Type11isIntegerTyEj
.Ltmp395:
	movb	%al, -1522(%rbp)        # 1-byte Spill
	jmp	.LBB0_225
.LBB0_225:                              #   in Loop: Header=BB0_212 Depth=4
	movb	-1522(%rbp), %al        # 1-byte Reload
	testb	$1, %al
	jne	.LBB0_226
	jmp	.LBB0_227
.LBB0_226:                              #   in Loop: Header=BB0_212 Depth=4
	movl	-240(%rbp), %eax
	addl	$1, %eax
	movl	%eax, -240(%rbp)
.LBB0_227:                              #   in Loop: Header=BB0_212 Depth=4
	jmp	.LBB0_228
.LBB0_228:                              #   in Loop: Header=BB0_212 Depth=4
	movq	-912(%rbp), %rdi
.Ltmp396:
	callq	_ZNK4llvm11ConstantInt12getSExtValueEv
.Ltmp397:
	movq	%rax, -1536(%rbp)       # 8-byte Spill
	jmp	.LBB0_229
.LBB0_229:                              #   in Loop: Header=BB0_212 Depth=4
	movq	-1536(%rbp), %rax       # 8-byte Reload
	cmpq	$0, %rax
	jne	.LBB0_233
# %bb.230:                              #   in Loop: Header=BB0_212 Depth=4
	movq	-920(%rbp), %rdi
.Ltmp398:
	callq	_ZNK4llvm4Type11isIntegerTyEv
.Ltmp399:
	movb	%al, -1537(%rbp)        # 1-byte Spill
	jmp	.LBB0_231
.LBB0_231:                              #   in Loop: Header=BB0_212 Depth=4
	movb	-1537(%rbp), %al        # 1-byte Reload
	testb	$1, %al
	jne	.LBB0_232
	jmp	.LBB0_233
.LBB0_232:                              #   in Loop: Header=BB0_212 Depth=4
	movl	-228(%rbp), %eax
	addl	$1, %eax
	movl	%eax, -228(%rbp)
	jmp	.LBB0_239
.LBB0_233:                              #   in Loop: Header=BB0_212 Depth=4
	movq	-912(%rbp), %rdi
.Ltmp400:
	callq	_ZNK4llvm11ConstantInt12getSExtValueEv
.Ltmp401:
	movq	%rax, -1552(%rbp)       # 8-byte Spill
	jmp	.LBB0_234
.LBB0_234:                              #   in Loop: Header=BB0_212 Depth=4
	movq	-1552(%rbp), %rax       # 8-byte Reload
	cmpq	$1, %rax
	jne	.LBB0_238
# %bb.235:                              #   in Loop: Header=BB0_212 Depth=4
	movq	-920(%rbp), %rdi
.Ltmp402:
	callq	_ZNK4llvm4Type11isIntegerTyEv
.Ltmp403:
	movb	%al, -1553(%rbp)        # 1-byte Spill
	jmp	.LBB0_236
.LBB0_236:                              #   in Loop: Header=BB0_212 Depth=4
	movb	-1553(%rbp), %al        # 1-byte Reload
	testb	$1, %al
	jne	.LBB0_237
	jmp	.LBB0_238
.LBB0_237:                              #   in Loop: Header=BB0_212 Depth=4
	movl	-236(%rbp), %eax
	addl	$1, %eax
	movl	%eax, -236(%rbp)
.LBB0_238:                              #   in Loop: Header=BB0_212 Depth=4
	jmp	.LBB0_239
.LBB0_239:                              #   in Loop: Header=BB0_212 Depth=4
	jmp	.LBB0_240
.LBB0_240:                              #   in Loop: Header=BB0_212 Depth=4
	movq	-880(%rbp), %rdi
.Ltmp404:
	callq	_ZN4llvm8dyn_castINS_14GlobalVariableENS_3UseEEENS_10cast_rettyIT_T0_E8ret_typeERS5_
.Ltmp405:
	movq	%rax, -1568(%rbp)       # 8-byte Spill
	jmp	.LBB0_241
.LBB0_241:                              #   in Loop: Header=BB0_212 Depth=4
	movq	-1568(%rbp), %rax       # 8-byte Reload
	movq	%rax, -928(%rbp)
	cmpq	$0, -928(%rbp)
	je	.LBB0_252
# %bb.242:                              #   in Loop: Header=BB0_212 Depth=4
.Ltmp406:
	leaq	-400(%rbp), %rdi
	leaq	-928(%rbp), %rsi
	callq	_ZNSt3setIPN4llvm14GlobalVariableESt4lessIS2_ESaIS2_EE6insertERKS2_
.Ltmp407:
	movb	%dl, -1569(%rbp)        # 1-byte Spill
	movq	%rax, -1584(%rbp)       # 8-byte Spill
	jmp	.LBB0_243
.LBB0_243:                              #   in Loop: Header=BB0_212 Depth=4
	movq	-1584(%rbp), %rax       # 8-byte Reload
	movq	%rax, -944(%rbp)
	movb	-1569(%rbp), %cl        # 1-byte Reload
	movb	%cl, -936(%rbp)
	movq	-928(%rbp), %rdi
.Ltmp408:
	callq	_ZNK4llvm14GlobalVariable14getNumOperandsEv
.Ltmp409:
	movl	%eax, -1588(%rbp)       # 4-byte Spill
	jmp	.LBB0_244
.LBB0_244:                              #   in Loop: Header=BB0_212 Depth=4
	movl	-1588(%rbp), %eax       # 4-byte Reload
	cmpl	$0, %eax
	je	.LBB0_251
# %bb.245:                              #   in Loop: Header=BB0_212 Depth=4
	movq	-928(%rbp), %rdi
.Ltmp410:
	xorl	%esi, %esi
	callq	_ZNK4llvm14GlobalVariable10getOperandEj
.Ltmp411:
	movq	%rax, -1600(%rbp)       # 8-byte Spill
	jmp	.LBB0_246
.LBB0_246:                              #   in Loop: Header=BB0_212 Depth=4
.Ltmp412:
	movq	-1600(%rbp), %rdi       # 8-byte Reload
	callq	_ZNK4llvm5Value7getTypeEv
.Ltmp413:
	movq	%rax, -1608(%rbp)       # 8-byte Spill
	jmp	.LBB0_247
.LBB0_247:                              #   in Loop: Header=BB0_212 Depth=4
	movq	-1608(%rbp), %rax       # 8-byte Reload
	movq	%rax, -952(%rbp)
	movq	-952(%rbp), %rdi
.Ltmp414:
	callq	_ZNK4llvm4Type11isPointerTyEv
.Ltmp415:
	movb	%al, -1609(%rbp)        # 1-byte Spill
	jmp	.LBB0_248
.LBB0_248:                              #   in Loop: Header=BB0_212 Depth=4
	movb	-1609(%rbp), %al        # 1-byte Reload
	testb	$1, %al
	jne	.LBB0_249
	jmp	.LBB0_250
.LBB0_249:                              #   in Loop: Header=BB0_212 Depth=4
	movl	-264(%rbp), %eax
	addl	$1, %eax
	movl	%eax, -264(%rbp)
.LBB0_250:                              #   in Loop: Header=BB0_212 Depth=4
	jmp	.LBB0_251
.LBB0_251:                              #   in Loop: Header=BB0_212 Depth=4
	movl	-256(%rbp), %eax
	addl	$1, %eax
	movl	%eax, -256(%rbp)
.LBB0_252:                              #   in Loop: Header=BB0_212 Depth=4
	jmp	.LBB0_253
.LBB0_253:                              #   in Loop: Header=BB0_212 Depth=4
	movq	-864(%rbp), %rax
	addq	$24, %rax
	movq	%rax, -864(%rbp)
	jmp	.LBB0_212
.LBB0_254:                              #   in Loop: Header=BB0_79 Depth=3
	jmp	.LBB0_255
.LBB0_255:                              #   in Loop: Header=BB0_79 Depth=3
	movq	-640(%rbp), %rdi
.Ltmp372:
	callq	_ZN4llvm8dyn_castINS_11GEPOperatorENS_11InstructionEEENS_10cast_rettyIT_PT0_E8ret_typeES6_
.Ltmp373:
	movq	%rax, -1624(%rbp)       # 8-byte Spill
	jmp	.LBB0_256
.LBB0_256:                              #   in Loop: Header=BB0_79 Depth=3
	movq	-1624(%rbp), %rax       # 8-byte Reload
	movq	%rax, -960(%rbp)
	cmpq	$0, -960(%rbp)
	je	.LBB0_267
# %bb.257:                              #   in Loop: Header=BB0_79 Depth=3
	movq	-960(%rbp), %rdi
.Ltmp374:
	callq	_ZN4llvm11GEPOperator9idx_beginEv
.Ltmp375:
	movq	%rax, -1632(%rbp)       # 8-byte Spill
	jmp	.LBB0_258
.LBB0_258:                              #   in Loop: Header=BB0_79 Depth=3
	movq	-1632(%rbp), %rax       # 8-byte Reload
	movq	%rax, -968(%rbp)
	movq	-960(%rbp), %rdi
.Ltmp376:
	callq	_ZN4llvm11GEPOperator7idx_endEv
.Ltmp377:
	movq	%rax, -1640(%rbp)       # 8-byte Spill
	jmp	.LBB0_259
.LBB0_259:                              #   in Loop: Header=BB0_79 Depth=3
	movq	-1640(%rbp), %rax       # 8-byte Reload
	movq	%rax, -976(%rbp)
.LBB0_260:                              #   Parent Loop BB0_1 Depth=1
                                        #     Parent Loop BB0_6 Depth=2
                                        #       Parent Loop BB0_79 Depth=3
                                        # =>      This Inner Loop Header: Depth=4
	movq	-968(%rbp), %rax
	cmpq	-976(%rbp), %rax
	je	.LBB0_266
# %bb.261:                              #   in Loop: Header=BB0_260 Depth=4
	movq	-968(%rbp), %rdi
.Ltmp380:
	callq	_ZN4llvm8dyn_castINS_14GlobalVariableENS_3UseEEENS_10cast_rettyIT_T0_E8ret_typeERS5_
.Ltmp381:
	movq	%rax, -1648(%rbp)       # 8-byte Spill
	jmp	.LBB0_262
.LBB0_262:                              #   in Loop: Header=BB0_260 Depth=4
	movq	-1648(%rbp), %rax       # 8-byte Reload
	movq	%rax, -984(%rbp)
	cmpq	$0, -984(%rbp)
	je	.LBB0_264
# %bb.263:                              #   in Loop: Header=BB0_260 Depth=4
	jmp	.LBB0_264
.LBB0_264:                              #   in Loop: Header=BB0_260 Depth=4
	jmp	.LBB0_265
.LBB0_265:                              #   in Loop: Header=BB0_260 Depth=4
	movq	-968(%rbp), %rax
	addq	$24, %rax
	movq	%rax, -968(%rbp)
	jmp	.LBB0_260
.LBB0_266:                              #   in Loop: Header=BB0_79 Depth=3
	jmp	.LBB0_267
.LBB0_267:                              #   in Loop: Header=BB0_79 Depth=3
	movl	-128(%rbp), %eax
	addl	$1, %eax
	movl	%eax, -128(%rbp)
# %bb.268:                              #   in Loop: Header=BB0_79 Depth=3
.Ltmp378:
	leaq	-624(%rbp), %rdi
	callq	_ZN4llvm14ilist_iteratorINS_12ilist_detail12node_optionsINS_11InstructionELb0ELb0EvEELb0ELb0EEppEv
.Ltmp379:
	jmp	.LBB0_269
.LBB0_269:                              #   in Loop: Header=BB0_79 Depth=3
	jmp	.LBB0_79
.LBB0_270:                              #   in Loop: Header=BB0_6 Depth=2
	cmpl	$3, -600(%rbp)
	jbe	.LBB0_272
# %bb.271:                              #   in Loop: Header=BB0_6 Depth=2
	movl	-216(%rbp), %eax
	addl	$1, %eax
	movl	%eax, -216(%rbp)
	jmp	.LBB0_276
.LBB0_272:                              #   in Loop: Header=BB0_6 Depth=2
	cmpl	$0, -600(%rbp)
	jb	.LBB0_275
# %bb.273:                              #   in Loop: Header=BB0_6 Depth=2
	cmpl	$3, -600(%rbp)
	ja	.LBB0_275
# %bb.274:                              #   in Loop: Header=BB0_6 Depth=2
	movl	-212(%rbp), %eax
	addl	$1, %eax
	movl	%eax, -212(%rbp)
.LBB0_275:                              #   in Loop: Header=BB0_6 Depth=2
	jmp	.LBB0_276
.LBB0_276:                              #   in Loop: Header=BB0_6 Depth=2
	cmpl	$5, -604(%rbp)
	jbe	.LBB0_278
# %bb.277:                              #   in Loop: Header=BB0_6 Depth=2
	movl	-220(%rbp), %eax
	addl	$1, %eax
	movl	%eax, -220(%rbp)
	jmp	.LBB0_282
.LBB0_278:                              #   in Loop: Header=BB0_6 Depth=2
	cmpl	$0, -604(%rbp)
	jbe	.LBB0_281
# %bb.279:                              #   in Loop: Header=BB0_6 Depth=2
	cmpl	$6, -604(%rbp)
	jae	.LBB0_281
# %bb.280:                              #   in Loop: Header=BB0_6 Depth=2
	movl	-224(%rbp), %eax
	addl	$1, %eax
	movl	%eax, -224(%rbp)
.LBB0_281:                              #   in Loop: Header=BB0_6 Depth=2
	jmp	.LBB0_282
.LBB0_282:                              #   in Loop: Header=BB0_6 Depth=2
	cmpl	$0, -600(%rbp)
	je	.LBB0_284
# %bb.283:                              #   in Loop: Header=BB0_6 Depth=2
	movl	-292(%rbp), %eax
	addl	$1, %eax
	movl	%eax, -292(%rbp)
.LBB0_284:                              #   in Loop: Header=BB0_6 Depth=2
	movq	-448(%rbp), %rdi
.Ltmp266:
	callq	_ZNK4llvm10BasicBlock4sizeEv
.Ltmp267:
	movq	%rax, -1656(%rbp)       # 8-byte Spill
	jmp	.LBB0_285
.LBB0_285:                              #   in Loop: Header=BB0_6 Depth=2
	movq	-1656(%rbp), %rax       # 8-byte Reload
	movl	%eax, %ecx
	movl	%ecx, -988(%rbp)
	cmpl	$15, -988(%rbp)
	jae	.LBB0_287
# %bb.286:                              #   in Loop: Header=BB0_6 Depth=2
	movl	-156(%rbp), %eax
	addl	$1, %eax
	movl	%eax, -156(%rbp)
	jmp	.LBB0_294
.LBB0_287:                              #   in Loop: Header=BB0_6 Depth=2
	cmpl	$15, -988(%rbp)
	jb	.LBB0_290
# %bb.288:                              #   in Loop: Header=BB0_6 Depth=2
	cmpl	$500, -988(%rbp)        # imm = 0x1F4
	ja	.LBB0_290
# %bb.289:                              #   in Loop: Header=BB0_6 Depth=2
	movl	-160(%rbp), %eax
	addl	$1, %eax
	movl	%eax, -160(%rbp)
	jmp	.LBB0_293
.LBB0_290:                              #   in Loop: Header=BB0_6 Depth=2
	cmpl	$500, -988(%rbp)        # imm = 0x1F4
	jbe	.LBB0_292
# %bb.291:                              #   in Loop: Header=BB0_6 Depth=2
	movl	-164(%rbp), %eax
	addl	$1, %eax
	movl	%eax, -164(%rbp)
.LBB0_292:                              #   in Loop: Header=BB0_6 Depth=2
	jmp	.LBB0_293
.LBB0_293:                              #   in Loop: Header=BB0_6 Depth=2
	jmp	.LBB0_294
.LBB0_294:                              #   in Loop: Header=BB0_6 Depth=2
	jmp	.LBB0_295
.LBB0_295:                              #   in Loop: Header=BB0_6 Depth=2
.Ltmp268:
	leaq	-416(%rbp), %rdi
	callq	_ZN4llvm14ilist_iteratorINS_12ilist_detail12node_optionsINS_10BasicBlockELb0ELb0EvEELb0ELb0EEppEv
.Ltmp269:
	jmp	.LBB0_296
.LBB0_296:                              #   in Loop: Header=BB0_6 Depth=2
	jmp	.LBB0_6
.LBB0_297:                              #   in Loop: Header=BB0_1 Depth=1
	cmpl	$0, -296(%rbp)
	jne	.LBB0_299
# %bb.298:                              #   in Loop: Header=BB0_1 Depth=1
	xorps	%xmm0, %xmm0
	movss	%xmm0, -204(%rbp)
	jmp	.LBB0_300
.LBB0_299:                              #   in Loop: Header=BB0_1 Depth=1
	movl	-296(%rbp), %eax
	movl	%eax, %ecx
	cvtsi2ss	%rcx, %xmm0
	movl	-300(%rbp), %eax
	movl	%eax, %ecx
	cvtsi2ss	%rcx, %xmm1
	divss	%xmm1, %xmm0
	movss	%xmm0, -204(%rbp)
.LBB0_300:                              #   in Loop: Header=BB0_1 Depth=1
	cmpl	$0, -68(%rbp)
	jne	.LBB0_302
# %bb.301:                              #   in Loop: Header=BB0_1 Depth=1
	xorps	%xmm0, %xmm0
	movss	%xmm0, -152(%rbp)
	movss	%xmm0, -200(%rbp)
	jmp	.LBB0_303
.LBB0_302:                              #   in Loop: Header=BB0_1 Depth=1
	movl	-300(%rbp), %eax
	movl	%eax, %ecx
	cvtsi2ss	%rcx, %xmm0
	movl	-68(%rbp), %eax
	movl	%eax, %ecx
	cvtsi2ss	%rcx, %xmm1
	divss	%xmm1, %xmm0
	movss	%xmm0, -200(%rbp)
	movl	-128(%rbp), %eax
	movl	%eax, %ecx
	cvtsi2ss	%rcx, %xmm0
	movl	-68(%rbp), %eax
	movl	%eax, %ecx
	cvtsi2ss	%rcx, %xmm1
	divss	%xmm1, %xmm0
	movss	%xmm0, -152(%rbp)
.LBB0_303:                              #   in Loop: Header=BB0_1 Depth=1
	leaq	-352(%rbp), %rdi
	callq	_ZNKSt3setIPN4llvm5ValueESt4lessIS2_ESaIS2_EE4sizeEv
                                        # kill: def $eax killed $eax killed $rax
	movl	%eax, -244(%rbp)
	leaq	-400(%rbp), %rdi
	callq	_ZNKSt3setIPN4llvm14GlobalVariableESt4lessIS2_ESaIS2_EE4sizeEv
                                        # kill: def $eax killed $eax killed $rax
	movl	%eax, -260(%rbp)
	movl	-68(%rbp), %eax
	movl	-292(%rbp), %ecx
	subl	%ecx, %eax
	movl	%eax, -208(%rbp)
.Ltmp6:
	callq	_ZN4llvm4errsEv
.Ltmp7:
	movq	%rax, -1664(%rbp)       # 8-byte Spill
	jmp	.LBB0_304
.LBB0_304:                              #   in Loop: Header=BB0_1 Depth=1
	movups	-64(%rbp), %xmm0
	movaps	%xmm0, -1008(%rbp)
	movq	-1008(%rbp), %rsi
	movq	-1000(%rbp), %rdx
.Ltmp8:
	movq	-1664(%rbp), %rdi       # 8-byte Reload
	callq	_ZN4llvm11raw_ostreamlsENS_9StringRefE
.Ltmp9:
	movq	%rax, -1672(%rbp)       # 8-byte Spill
	jmp	.LBB0_305
.LBB0_305:                              #   in Loop: Header=BB0_1 Depth=1
.Ltmp10:
	movl	$.L.str, %esi
	movq	-1672(%rbp), %rdi       # 8-byte Reload
	callq	_ZN4llvm11raw_ostreamlsEPKc
.Ltmp11:
	movq	%rax, -1680(%rbp)       # 8-byte Spill
	jmp	.LBB0_306
.LBB0_306:                              #   in Loop: Header=BB0_1 Depth=1
.Ltmp12:
	movl	$.L.str.1, %esi
	movq	-1680(%rbp), %rdi       # 8-byte Reload
	callq	_ZN4llvm11raw_ostreamlsEPKc
.Ltmp13:
	movq	%rax, -1688(%rbp)       # 8-byte Spill
	jmp	.LBB0_307
.LBB0_307:                              #   in Loop: Header=BB0_1 Depth=1
	movl	-68(%rbp), %esi
.Ltmp14:
	movq	-1688(%rbp), %rdi       # 8-byte Reload
	callq	_ZN4llvm11raw_ostreamlsEj
.Ltmp15:
	movq	%rax, -1696(%rbp)       # 8-byte Spill
	jmp	.LBB0_308
.LBB0_308:                              #   in Loop: Header=BB0_1 Depth=1
.Ltmp16:
	movl	$.L.str.2, %esi
	movq	-1696(%rbp), %rdi       # 8-byte Reload
	callq	_ZN4llvm11raw_ostreamlsEPKc
.Ltmp17:
	movq	%rax, -1704(%rbp)       # 8-byte Spill
	jmp	.LBB0_309
.LBB0_309:                              #   in Loop: Header=BB0_1 Depth=1
	movl	-84(%rbp), %esi
.Ltmp18:
	movq	-1704(%rbp), %rdi       # 8-byte Reload
	callq	_ZN4llvm11raw_ostreamlsEj
.Ltmp19:
	movq	%rax, -1712(%rbp)       # 8-byte Spill
	jmp	.LBB0_310
.LBB0_310:                              #   in Loop: Header=BB0_1 Depth=1
.Ltmp20:
	movl	$.L.str.3, %esi
	movq	-1712(%rbp), %rdi       # 8-byte Reload
	callq	_ZN4llvm11raw_ostreamlsEPKc
.Ltmp21:
	movq	%rax, -1720(%rbp)       # 8-byte Spill
	jmp	.LBB0_311
.LBB0_311:                              #   in Loop: Header=BB0_1 Depth=1
	movl	-88(%rbp), %esi
.Ltmp22:
	movq	-1720(%rbp), %rdi       # 8-byte Reload
	callq	_ZN4llvm11raw_ostreamlsEj
.Ltmp23:
	movq	%rax, -1728(%rbp)       # 8-byte Spill
	jmp	.LBB0_312
.LBB0_312:                              #   in Loop: Header=BB0_1 Depth=1
.Ltmp24:
	movl	$.L.str.4, %esi
	movq	-1728(%rbp), %rdi       # 8-byte Reload
	callq	_ZN4llvm11raw_ostreamlsEPKc
.Ltmp25:
	movq	%rax, -1736(%rbp)       # 8-byte Spill
	jmp	.LBB0_313
.LBB0_313:                              #   in Loop: Header=BB0_1 Depth=1
	movl	-92(%rbp), %esi
.Ltmp26:
	movq	-1736(%rbp), %rdi       # 8-byte Reload
	callq	_ZN4llvm11raw_ostreamlsEj
.Ltmp27:
	movq	%rax, -1744(%rbp)       # 8-byte Spill
	jmp	.LBB0_314
.LBB0_314:                              #   in Loop: Header=BB0_1 Depth=1
.Ltmp28:
	movl	$.L.str.5, %esi
	movq	-1744(%rbp), %rdi       # 8-byte Reload
	callq	_ZN4llvm11raw_ostreamlsEPKc
.Ltmp29:
	movq	%rax, -1752(%rbp)       # 8-byte Spill
	jmp	.LBB0_315
.LBB0_315:                              #   in Loop: Header=BB0_1 Depth=1
	movl	-72(%rbp), %esi
.Ltmp30:
	movq	-1752(%rbp), %rdi       # 8-byte Reload
	callq	_ZN4llvm11raw_ostreamlsEj
.Ltmp31:
	movq	%rax, -1760(%rbp)       # 8-byte Spill
	jmp	.LBB0_316
.LBB0_316:                              #   in Loop: Header=BB0_1 Depth=1
.Ltmp32:
	movl	$.L.str.6, %esi
	movq	-1760(%rbp), %rdi       # 8-byte Reload
	callq	_ZN4llvm11raw_ostreamlsEPKc
.Ltmp33:
	movq	%rax, -1768(%rbp)       # 8-byte Spill
	jmp	.LBB0_317
.LBB0_317:                              #   in Loop: Header=BB0_1 Depth=1
	movl	-76(%rbp), %esi
.Ltmp34:
	movq	-1768(%rbp), %rdi       # 8-byte Reload
	callq	_ZN4llvm11raw_ostreamlsEj
.Ltmp35:
	movq	%rax, -1776(%rbp)       # 8-byte Spill
	jmp	.LBB0_318
.LBB0_318:                              #   in Loop: Header=BB0_1 Depth=1
.Ltmp36:
	movl	$.L.str.7, %esi
	movq	-1776(%rbp), %rdi       # 8-byte Reload
	callq	_ZN4llvm11raw_ostreamlsEPKc
.Ltmp37:
	movq	%rax, -1784(%rbp)       # 8-byte Spill
	jmp	.LBB0_319
.LBB0_319:                              #   in Loop: Header=BB0_1 Depth=1
	movl	-80(%rbp), %esi
.Ltmp38:
	movq	-1784(%rbp), %rdi       # 8-byte Reload
	callq	_ZN4llvm11raw_ostreamlsEj
.Ltmp39:
	movq	%rax, -1792(%rbp)       # 8-byte Spill
	jmp	.LBB0_320
.LBB0_320:                              #   in Loop: Header=BB0_1 Depth=1
.Ltmp40:
	movl	$.L.str.8, %esi
	movq	-1792(%rbp), %rdi       # 8-byte Reload
	callq	_ZN4llvm11raw_ostreamlsEPKc
.Ltmp41:
	movq	%rax, -1800(%rbp)       # 8-byte Spill
	jmp	.LBB0_321
.LBB0_321:                              #   in Loop: Header=BB0_1 Depth=1
	movl	-96(%rbp), %esi
.Ltmp42:
	movq	-1800(%rbp), %rdi       # 8-byte Reload
	callq	_ZN4llvm11raw_ostreamlsEj
.Ltmp43:
	movq	%rax, -1808(%rbp)       # 8-byte Spill
	jmp	.LBB0_322
.LBB0_322:                              #   in Loop: Header=BB0_1 Depth=1
.Ltmp44:
	movl	$.L.str.9, %esi
	movq	-1808(%rbp), %rdi       # 8-byte Reload
	callq	_ZN4llvm11raw_ostreamlsEPKc
.Ltmp45:
	movq	%rax, -1816(%rbp)       # 8-byte Spill
	jmp	.LBB0_323
.LBB0_323:                              #   in Loop: Header=BB0_1 Depth=1
	movl	-100(%rbp), %esi
.Ltmp46:
	movq	-1816(%rbp), %rdi       # 8-byte Reload
	callq	_ZN4llvm11raw_ostreamlsEj
.Ltmp47:
	movq	%rax, -1824(%rbp)       # 8-byte Spill
	jmp	.LBB0_324
.LBB0_324:                              #   in Loop: Header=BB0_1 Depth=1
.Ltmp48:
	movl	$.L.str.10, %esi
	movq	-1824(%rbp), %rdi       # 8-byte Reload
	callq	_ZN4llvm11raw_ostreamlsEPKc
.Ltmp49:
	movq	%rax, -1832(%rbp)       # 8-byte Spill
	jmp	.LBB0_325
.LBB0_325:                              #   in Loop: Header=BB0_1 Depth=1
	movl	-104(%rbp), %esi
.Ltmp50:
	movq	-1832(%rbp), %rdi       # 8-byte Reload
	callq	_ZN4llvm11raw_ostreamlsEj
.Ltmp51:
	movq	%rax, -1840(%rbp)       # 8-byte Spill
	jmp	.LBB0_326
.LBB0_326:                              #   in Loop: Header=BB0_1 Depth=1
.Ltmp52:
	movl	$.L.str.11, %esi
	movq	-1840(%rbp), %rdi       # 8-byte Reload
	callq	_ZN4llvm11raw_ostreamlsEPKc
.Ltmp53:
	movq	%rax, -1848(%rbp)       # 8-byte Spill
	jmp	.LBB0_327
.LBB0_327:                              #   in Loop: Header=BB0_1 Depth=1
	movl	-108(%rbp), %esi
.Ltmp54:
	movq	-1848(%rbp), %rdi       # 8-byte Reload
	callq	_ZN4llvm11raw_ostreamlsEj
.Ltmp55:
	movq	%rax, -1856(%rbp)       # 8-byte Spill
	jmp	.LBB0_328
.LBB0_328:                              #   in Loop: Header=BB0_1 Depth=1
.Ltmp56:
	movl	$.L.str.12, %esi
	movq	-1856(%rbp), %rdi       # 8-byte Reload
	callq	_ZN4llvm11raw_ostreamlsEPKc
.Ltmp57:
	movq	%rax, -1864(%rbp)       # 8-byte Spill
	jmp	.LBB0_329
.LBB0_329:                              #   in Loop: Header=BB0_1 Depth=1
	movl	-112(%rbp), %esi
.Ltmp58:
	movq	-1864(%rbp), %rdi       # 8-byte Reload
	callq	_ZN4llvm11raw_ostreamlsEj
.Ltmp59:
	movq	%rax, -1872(%rbp)       # 8-byte Spill
	jmp	.LBB0_330
.LBB0_330:                              #   in Loop: Header=BB0_1 Depth=1
.Ltmp60:
	movl	$.L.str.13, %esi
	movq	-1872(%rbp), %rdi       # 8-byte Reload
	callq	_ZN4llvm11raw_ostreamlsEPKc
.Ltmp61:
	movq	%rax, -1880(%rbp)       # 8-byte Spill
	jmp	.LBB0_331
.LBB0_331:                              #   in Loop: Header=BB0_1 Depth=1
	movl	-156(%rbp), %esi
.Ltmp62:
	movq	-1880(%rbp), %rdi       # 8-byte Reload
	callq	_ZN4llvm11raw_ostreamlsEj
.Ltmp63:
	movq	%rax, -1888(%rbp)       # 8-byte Spill
	jmp	.LBB0_332
.LBB0_332:                              #   in Loop: Header=BB0_1 Depth=1
.Ltmp64:
	movl	$.L.str.14, %esi
	movq	-1888(%rbp), %rdi       # 8-byte Reload
	callq	_ZN4llvm11raw_ostreamlsEPKc
.Ltmp65:
	movq	%rax, -1896(%rbp)       # 8-byte Spill
	jmp	.LBB0_333
.LBB0_333:                              #   in Loop: Header=BB0_1 Depth=1
	movl	-160(%rbp), %esi
.Ltmp66:
	movq	-1896(%rbp), %rdi       # 8-byte Reload
	callq	_ZN4llvm11raw_ostreamlsEj
.Ltmp67:
	movq	%rax, -1904(%rbp)       # 8-byte Spill
	jmp	.LBB0_334
.LBB0_334:                              #   in Loop: Header=BB0_1 Depth=1
.Ltmp68:
	movl	$.L.str.15, %esi
	movq	-1904(%rbp), %rdi       # 8-byte Reload
	callq	_ZN4llvm11raw_ostreamlsEPKc
.Ltmp69:
	movq	%rax, -1912(%rbp)       # 8-byte Spill
	jmp	.LBB0_335
.LBB0_335:                              #   in Loop: Header=BB0_1 Depth=1
	movl	-164(%rbp), %esi
.Ltmp70:
	movq	-1912(%rbp), %rdi       # 8-byte Reload
	callq	_ZN4llvm11raw_ostreamlsEj
.Ltmp71:
	movq	%rax, -1920(%rbp)       # 8-byte Spill
	jmp	.LBB0_336
.LBB0_336:                              #   in Loop: Header=BB0_1 Depth=1
.Ltmp72:
	movl	$.L.str.16, %esi
	movq	-1920(%rbp), %rdi       # 8-byte Reload
	callq	_ZN4llvm11raw_ostreamlsEPKc
.Ltmp73:
	movq	%rax, -1928(%rbp)       # 8-byte Spill
	jmp	.LBB0_337
.LBB0_337:                              #   in Loop: Header=BB0_1 Depth=1
	movl	-280(%rbp), %esi
.Ltmp74:
	movq	-1928(%rbp), %rdi       # 8-byte Reload
	callq	_ZN4llvm11raw_ostreamlsEj
.Ltmp75:
	movq	%rax, -1936(%rbp)       # 8-byte Spill
	jmp	.LBB0_338
.LBB0_338:                              #   in Loop: Header=BB0_1 Depth=1
.Ltmp76:
	movl	$.L.str.17, %esi
	movq	-1936(%rbp), %rdi       # 8-byte Reload
	callq	_ZN4llvm11raw_ostreamlsEPKc
.Ltmp77:
	movq	%rax, -1944(%rbp)       # 8-byte Spill
	jmp	.LBB0_339
.LBB0_339:                              #   in Loop: Header=BB0_1 Depth=1
	movl	-272(%rbp), %esi
.Ltmp78:
	movq	-1944(%rbp), %rdi       # 8-byte Reload
	callq	_ZN4llvm11raw_ostreamlsEj
.Ltmp79:
	movq	%rax, -1952(%rbp)       # 8-byte Spill
	jmp	.LBB0_340
.LBB0_340:                              #   in Loop: Header=BB0_1 Depth=1
.Ltmp80:
	movl	$.L.str.18, %esi
	movq	-1952(%rbp), %rdi       # 8-byte Reload
	callq	_ZN4llvm11raw_ostreamlsEPKc
.Ltmp81:
	movq	%rax, -1960(%rbp)       # 8-byte Spill
	jmp	.LBB0_341
.LBB0_341:                              #   in Loop: Header=BB0_1 Depth=1
	movl	-276(%rbp), %esi
.Ltmp82:
	movq	-1960(%rbp), %rdi       # 8-byte Reload
	callq	_ZN4llvm11raw_ostreamlsEj
.Ltmp83:
	movq	%rax, -1968(%rbp)       # 8-byte Spill
	jmp	.LBB0_342
.LBB0_342:                              #   in Loop: Header=BB0_1 Depth=1
.Ltmp84:
	movl	$.L.str.19, %esi
	movq	-1968(%rbp), %rdi       # 8-byte Reload
	callq	_ZN4llvm11raw_ostreamlsEPKc
.Ltmp85:
	movq	%rax, -1976(%rbp)       # 8-byte Spill
	jmp	.LBB0_343
.LBB0_343:                              #   in Loop: Header=BB0_1 Depth=1
	movl	-180(%rbp), %esi
.Ltmp86:
	movq	-1976(%rbp), %rdi       # 8-byte Reload
	callq	_ZN4llvm11raw_ostreamlsEj
.Ltmp87:
	movq	%rax, -1984(%rbp)       # 8-byte Spill
	jmp	.LBB0_344
.LBB0_344:                              #   in Loop: Header=BB0_1 Depth=1
.Ltmp88:
	movl	$.L.str.20, %esi
	movq	-1984(%rbp), %rdi       # 8-byte Reload
	callq	_ZN4llvm11raw_ostreamlsEPKc
.Ltmp89:
	movq	%rax, -1992(%rbp)       # 8-byte Spill
	jmp	.LBB0_345
.LBB0_345:                              #   in Loop: Header=BB0_1 Depth=1
	movl	-192(%rbp), %esi
.Ltmp90:
	movq	-1992(%rbp), %rdi       # 8-byte Reload
	callq	_ZN4llvm11raw_ostreamlsEj
.Ltmp91:
	movq	%rax, -2000(%rbp)       # 8-byte Spill
	jmp	.LBB0_346
.LBB0_346:                              #   in Loop: Header=BB0_1 Depth=1
.Ltmp92:
	movl	$.L.str.21, %esi
	movq	-2000(%rbp), %rdi       # 8-byte Reload
	callq	_ZN4llvm11raw_ostreamlsEPKc
.Ltmp93:
	movq	%rax, -2008(%rbp)       # 8-byte Spill
	jmp	.LBB0_347
.LBB0_347:                              #   in Loop: Header=BB0_1 Depth=1
	movl	-116(%rbp), %esi
.Ltmp94:
	movq	-2008(%rbp), %rdi       # 8-byte Reload
	callq	_ZN4llvm11raw_ostreamlsEj
.Ltmp95:
	movq	%rax, -2016(%rbp)       # 8-byte Spill
	jmp	.LBB0_348
.LBB0_348:                              #   in Loop: Header=BB0_1 Depth=1
.Ltmp96:
	movl	$.L.str.22, %esi
	movq	-2016(%rbp), %rdi       # 8-byte Reload
	callq	_ZN4llvm11raw_ostreamlsEPKc
.Ltmp97:
	movq	%rax, -2024(%rbp)       # 8-byte Spill
	jmp	.LBB0_349
.LBB0_349:                              #   in Loop: Header=BB0_1 Depth=1
	movl	-196(%rbp), %esi
.Ltmp98:
	movq	-2024(%rbp), %rdi       # 8-byte Reload
	callq	_ZN4llvm11raw_ostreamlsEj
.Ltmp99:
	movq	%rax, -2032(%rbp)       # 8-byte Spill
	jmp	.LBB0_350
.LBB0_350:                              #   in Loop: Header=BB0_1 Depth=1
.Ltmp100:
	movl	$.L.str.23, %esi
	movq	-2032(%rbp), %rdi       # 8-byte Reload
	callq	_ZN4llvm11raw_ostreamlsEPKc
.Ltmp101:
	movq	%rax, -2040(%rbp)       # 8-byte Spill
	jmp	.LBB0_351
.LBB0_351:                              #   in Loop: Header=BB0_1 Depth=1
	movl	-120(%rbp), %esi
.Ltmp102:
	movq	-2040(%rbp), %rdi       # 8-byte Reload
	callq	_ZN4llvm11raw_ostreamlsEj
.Ltmp103:
	movq	%rax, -2048(%rbp)       # 8-byte Spill
	jmp	.LBB0_352
.LBB0_352:                              #   in Loop: Header=BB0_1 Depth=1
.Ltmp104:
	movl	$.L.str.24, %esi
	movq	-2048(%rbp), %rdi       # 8-byte Reload
	callq	_ZN4llvm11raw_ostreamlsEPKc
.Ltmp105:
	movq	%rax, -2056(%rbp)       # 8-byte Spill
	jmp	.LBB0_353
.LBB0_353:                              #   in Loop: Header=BB0_1 Depth=1
	movl	-124(%rbp), %esi
.Ltmp106:
	movq	-2056(%rbp), %rdi       # 8-byte Reload
	callq	_ZN4llvm11raw_ostreamlsEj
.Ltmp107:
	movq	%rax, -2064(%rbp)       # 8-byte Spill
	jmp	.LBB0_354
.LBB0_354:                              #   in Loop: Header=BB0_1 Depth=1
.Ltmp108:
	movl	$.L.str.25, %esi
	movq	-2064(%rbp), %rdi       # 8-byte Reload
	callq	_ZN4llvm11raw_ostreamlsEPKc
.Ltmp109:
	movq	%rax, -2072(%rbp)       # 8-byte Spill
	jmp	.LBB0_355
.LBB0_355:                              #   in Loop: Header=BB0_1 Depth=1
	movl	-128(%rbp), %esi
.Ltmp110:
	movq	-2072(%rbp), %rdi       # 8-byte Reload
	callq	_ZN4llvm11raw_ostreamlsEj
.Ltmp111:
	movq	%rax, -2080(%rbp)       # 8-byte Spill
	jmp	.LBB0_356
.LBB0_356:                              #   in Loop: Header=BB0_1 Depth=1
.Ltmp112:
	movl	$.L.str.26, %esi
	movq	-2080(%rbp), %rdi       # 8-byte Reload
	callq	_ZN4llvm11raw_ostreamlsEPKc
.Ltmp113:
	movq	%rax, -2088(%rbp)       # 8-byte Spill
	jmp	.LBB0_357
.LBB0_357:                              #   in Loop: Header=BB0_1 Depth=1
	movss	-152(%rbp), %xmm0       # xmm0 = mem[0],zero,zero,zero
	cvtss2sd	%xmm0, %xmm0
.Ltmp114:
	movq	-2088(%rbp), %rdi       # 8-byte Reload
	callq	_ZN4llvm11raw_ostreamlsEd
.Ltmp115:
	movq	%rax, -2096(%rbp)       # 8-byte Spill
	jmp	.LBB0_358
.LBB0_358:                              #   in Loop: Header=BB0_1 Depth=1
.Ltmp116:
	movl	$.L.str.27, %esi
	movq	-2096(%rbp), %rdi       # 8-byte Reload
	callq	_ZN4llvm11raw_ostreamlsEPKc
.Ltmp117:
	movq	%rax, -2104(%rbp)       # 8-byte Spill
	jmp	.LBB0_359
.LBB0_359:                              #   in Loop: Header=BB0_1 Depth=1
	movss	-200(%rbp), %xmm0       # xmm0 = mem[0],zero,zero,zero
	cvtss2sd	%xmm0, %xmm0
.Ltmp118:
	movq	-2104(%rbp), %rdi       # 8-byte Reload
	callq	_ZN4llvm11raw_ostreamlsEd
.Ltmp119:
	movq	%rax, -2112(%rbp)       # 8-byte Spill
	jmp	.LBB0_360
.LBB0_360:                              #   in Loop: Header=BB0_1 Depth=1
.Ltmp120:
	movl	$.L.str.28, %esi
	movq	-2112(%rbp), %rdi       # 8-byte Reload
	callq	_ZN4llvm11raw_ostreamlsEPKc
.Ltmp121:
	movq	%rax, -2120(%rbp)       # 8-byte Spill
	jmp	.LBB0_361
.LBB0_361:                              #   in Loop: Header=BB0_1 Depth=1
	movss	-204(%rbp), %xmm0       # xmm0 = mem[0],zero,zero,zero
	cvtss2sd	%xmm0, %xmm0
.Ltmp122:
	movq	-2120(%rbp), %rdi       # 8-byte Reload
	callq	_ZN4llvm11raw_ostreamlsEd
.Ltmp123:
	movq	%rax, -2128(%rbp)       # 8-byte Spill
	jmp	.LBB0_362
.LBB0_362:                              #   in Loop: Header=BB0_1 Depth=1
.Ltmp124:
	movl	$.L.str.29, %esi
	movq	-2128(%rbp), %rdi       # 8-byte Reload
	callq	_ZN4llvm11raw_ostreamlsEPKc
.Ltmp125:
	movq	%rax, -2136(%rbp)       # 8-byte Spill
	jmp	.LBB0_363
.LBB0_363:                              #   in Loop: Header=BB0_1 Depth=1
	movl	-208(%rbp), %esi
.Ltmp126:
	movq	-2136(%rbp), %rdi       # 8-byte Reload
	callq	_ZN4llvm11raw_ostreamlsEj
.Ltmp127:
	movq	%rax, -2144(%rbp)       # 8-byte Spill
	jmp	.LBB0_364
.LBB0_364:                              #   in Loop: Header=BB0_1 Depth=1
.Ltmp128:
	movl	$.L.str.30, %esi
	movq	-2144(%rbp), %rdi       # 8-byte Reload
	callq	_ZN4llvm11raw_ostreamlsEPKc
.Ltmp129:
	movq	%rax, -2152(%rbp)       # 8-byte Spill
	jmp	.LBB0_365
.LBB0_365:                              #   in Loop: Header=BB0_1 Depth=1
	movl	-212(%rbp), %esi
.Ltmp130:
	movq	-2152(%rbp), %rdi       # 8-byte Reload
	callq	_ZN4llvm11raw_ostreamlsEj
.Ltmp131:
	movq	%rax, -2160(%rbp)       # 8-byte Spill
	jmp	.LBB0_366
.LBB0_366:                              #   in Loop: Header=BB0_1 Depth=1
.Ltmp132:
	movl	$.L.str.31, %esi
	movq	-2160(%rbp), %rdi       # 8-byte Reload
	callq	_ZN4llvm11raw_ostreamlsEPKc
.Ltmp133:
	movq	%rax, -2168(%rbp)       # 8-byte Spill
	jmp	.LBB0_367
.LBB0_367:                              #   in Loop: Header=BB0_1 Depth=1
	movl	-216(%rbp), %esi
.Ltmp134:
	movq	-2168(%rbp), %rdi       # 8-byte Reload
	callq	_ZN4llvm11raw_ostreamlsEj
.Ltmp135:
	movq	%rax, -2176(%rbp)       # 8-byte Spill
	jmp	.LBB0_368
.LBB0_368:                              #   in Loop: Header=BB0_1 Depth=1
.Ltmp136:
	movl	$.L.str.32, %esi
	movq	-2176(%rbp), %rdi       # 8-byte Reload
	callq	_ZN4llvm11raw_ostreamlsEPKc
.Ltmp137:
	movq	%rax, -2184(%rbp)       # 8-byte Spill
	jmp	.LBB0_369
.LBB0_369:                              #   in Loop: Header=BB0_1 Depth=1
	movl	-220(%rbp), %esi
.Ltmp138:
	movq	-2184(%rbp), %rdi       # 8-byte Reload
	callq	_ZN4llvm11raw_ostreamlsEj
.Ltmp139:
	movq	%rax, -2192(%rbp)       # 8-byte Spill
	jmp	.LBB0_370
.LBB0_370:                              #   in Loop: Header=BB0_1 Depth=1
.Ltmp140:
	movl	$.L.str.33, %esi
	movq	-2192(%rbp), %rdi       # 8-byte Reload
	callq	_ZN4llvm11raw_ostreamlsEPKc
.Ltmp141:
	movq	%rax, -2200(%rbp)       # 8-byte Spill
	jmp	.LBB0_371
.LBB0_371:                              #   in Loop: Header=BB0_1 Depth=1
	movl	-224(%rbp), %esi
.Ltmp142:
	movq	-2200(%rbp), %rdi       # 8-byte Reload
	callq	_ZN4llvm11raw_ostreamlsEj
.Ltmp143:
	movq	%rax, -2208(%rbp)       # 8-byte Spill
	jmp	.LBB0_372
.LBB0_372:                              #   in Loop: Header=BB0_1 Depth=1
.Ltmp144:
	movl	$.L.str.34, %esi
	movq	-2208(%rbp), %rdi       # 8-byte Reload
	callq	_ZN4llvm11raw_ostreamlsEPKc
.Ltmp145:
	movq	%rax, -2216(%rbp)       # 8-byte Spill
	jmp	.LBB0_373
.LBB0_373:                              #   in Loop: Header=BB0_1 Depth=1
	movl	-132(%rbp), %esi
.Ltmp146:
	movq	-2216(%rbp), %rdi       # 8-byte Reload
	callq	_ZN4llvm11raw_ostreamlsEj
.Ltmp147:
	movq	%rax, -2224(%rbp)       # 8-byte Spill
	jmp	.LBB0_374
.LBB0_374:                              #   in Loop: Header=BB0_1 Depth=1
.Ltmp148:
	movl	$.L.str.35, %esi
	movq	-2224(%rbp), %rdi       # 8-byte Reload
	callq	_ZN4llvm11raw_ostreamlsEPKc
.Ltmp149:
	movq	%rax, -2232(%rbp)       # 8-byte Spill
	jmp	.LBB0_375
.LBB0_375:                              #   in Loop: Header=BB0_1 Depth=1
	movl	-136(%rbp), %esi
.Ltmp150:
	movq	-2232(%rbp), %rdi       # 8-byte Reload
	callq	_ZN4llvm11raw_ostreamlsEj
.Ltmp151:
	movq	%rax, -2240(%rbp)       # 8-byte Spill
	jmp	.LBB0_376
.LBB0_376:                              #   in Loop: Header=BB0_1 Depth=1
.Ltmp152:
	movl	$.L.str.36, %esi
	movq	-2240(%rbp), %rdi       # 8-byte Reload
	callq	_ZN4llvm11raw_ostreamlsEPKc
.Ltmp153:
	movq	%rax, -2248(%rbp)       # 8-byte Spill
	jmp	.LBB0_377
.LBB0_377:                              #   in Loop: Header=BB0_1 Depth=1
	movl	-140(%rbp), %esi
.Ltmp154:
	movq	-2248(%rbp), %rdi       # 8-byte Reload
	callq	_ZN4llvm11raw_ostreamlsEj
.Ltmp155:
	movq	%rax, -2256(%rbp)       # 8-byte Spill
	jmp	.LBB0_378
.LBB0_378:                              #   in Loop: Header=BB0_1 Depth=1
.Ltmp156:
	movl	$.L.str.37, %esi
	movq	-2256(%rbp), %rdi       # 8-byte Reload
	callq	_ZN4llvm11raw_ostreamlsEPKc
.Ltmp157:
	movq	%rax, -2264(%rbp)       # 8-byte Spill
	jmp	.LBB0_379
.LBB0_379:                              #   in Loop: Header=BB0_1 Depth=1
	movl	-284(%rbp), %esi
.Ltmp158:
	movq	-2264(%rbp), %rdi       # 8-byte Reload
	callq	_ZN4llvm11raw_ostreamlsEj
.Ltmp159:
	movq	%rax, -2272(%rbp)       # 8-byte Spill
	jmp	.LBB0_380
.LBB0_380:                              #   in Loop: Header=BB0_1 Depth=1
.Ltmp160:
	movl	$.L.str.38, %esi
	movq	-2272(%rbp), %rdi       # 8-byte Reload
	callq	_ZN4llvm11raw_ostreamlsEPKc
.Ltmp161:
	movq	%rax, -2280(%rbp)       # 8-byte Spill
	jmp	.LBB0_381
.LBB0_381:                              #   in Loop: Header=BB0_1 Depth=1
	movl	-268(%rbp), %esi
.Ltmp162:
	movq	-2280(%rbp), %rdi       # 8-byte Reload
	callq	_ZN4llvm11raw_ostreamlsEj
.Ltmp163:
	movq	%rax, -2288(%rbp)       # 8-byte Spill
	jmp	.LBB0_382
.LBB0_382:                              #   in Loop: Header=BB0_1 Depth=1
.Ltmp164:
	movl	$.L.str.39, %esi
	movq	-2288(%rbp), %rdi       # 8-byte Reload
	callq	_ZN4llvm11raw_ostreamlsEPKc
.Ltmp165:
	movq	%rax, -2296(%rbp)       # 8-byte Spill
	jmp	.LBB0_383
.LBB0_383:                              #   in Loop: Header=BB0_1 Depth=1
	movl	-288(%rbp), %esi
.Ltmp166:
	movq	-2296(%rbp), %rdi       # 8-byte Reload
	callq	_ZN4llvm11raw_ostreamlsEj
.Ltmp167:
	movq	%rax, -2304(%rbp)       # 8-byte Spill
	jmp	.LBB0_384
.LBB0_384:                              #   in Loop: Header=BB0_1 Depth=1
.Ltmp168:
	movl	$.L.str.40, %esi
	movq	-2304(%rbp), %rdi       # 8-byte Reload
	callq	_ZN4llvm11raw_ostreamlsEPKc
.Ltmp169:
	movq	%rax, -2312(%rbp)       # 8-byte Spill
	jmp	.LBB0_385
.LBB0_385:                              #   in Loop: Header=BB0_1 Depth=1
	movl	-188(%rbp), %esi
.Ltmp170:
	movq	-2312(%rbp), %rdi       # 8-byte Reload
	callq	_ZN4llvm11raw_ostreamlsEj
.Ltmp171:
	movq	%rax, -2320(%rbp)       # 8-byte Spill
	jmp	.LBB0_386
.LBB0_386:                              #   in Loop: Header=BB0_1 Depth=1
.Ltmp172:
	movl	$.L.str.41, %esi
	movq	-2320(%rbp), %rdi       # 8-byte Reload
	callq	_ZN4llvm11raw_ostreamlsEPKc
.Ltmp173:
	movq	%rax, -2328(%rbp)       # 8-byte Spill
	jmp	.LBB0_387
.LBB0_387:                              #   in Loop: Header=BB0_1 Depth=1
	movl	-148(%rbp), %esi
.Ltmp174:
	movq	-2328(%rbp), %rdi       # 8-byte Reload
	callq	_ZN4llvm11raw_ostreamlsEj
.Ltmp175:
	movq	%rax, -2336(%rbp)       # 8-byte Spill
	jmp	.LBB0_388
.LBB0_388:                              #   in Loop: Header=BB0_1 Depth=1
.Ltmp176:
	movl	$.L.str.42, %esi
	movq	-2336(%rbp), %rdi       # 8-byte Reload
	callq	_ZN4llvm11raw_ostreamlsEPKc
.Ltmp177:
	movq	%rax, -2344(%rbp)       # 8-byte Spill
	jmp	.LBB0_389
.LBB0_389:                              #   in Loop: Header=BB0_1 Depth=1
	movl	-144(%rbp), %esi
.Ltmp178:
	movq	-2344(%rbp), %rdi       # 8-byte Reload
	callq	_ZN4llvm11raw_ostreamlsEj
.Ltmp179:
	movq	%rax, -2352(%rbp)       # 8-byte Spill
	jmp	.LBB0_390
.LBB0_390:                              #   in Loop: Header=BB0_1 Depth=1
.Ltmp180:
	movl	$.L.str.43, %esi
	movq	-2352(%rbp), %rdi       # 8-byte Reload
	callq	_ZN4llvm11raw_ostreamlsEPKc
.Ltmp181:
	movq	%rax, -2360(%rbp)       # 8-byte Spill
	jmp	.LBB0_391
.LBB0_391:                              #   in Loop: Header=BB0_1 Depth=1
	movl	-184(%rbp), %esi
.Ltmp182:
	movq	-2360(%rbp), %rdi       # 8-byte Reload
	callq	_ZN4llvm11raw_ostreamlsEj
.Ltmp183:
	movq	%rax, -2368(%rbp)       # 8-byte Spill
	jmp	.LBB0_392
.LBB0_392:                              #   in Loop: Header=BB0_1 Depth=1
.Ltmp184:
	movl	$.L.str.44, %esi
	movq	-2368(%rbp), %rdi       # 8-byte Reload
	callq	_ZN4llvm11raw_ostreamlsEPKc
.Ltmp185:
	movq	%rax, -2376(%rbp)       # 8-byte Spill
	jmp	.LBB0_393
.LBB0_393:                              #   in Loop: Header=BB0_1 Depth=1
	movl	-172(%rbp), %esi
.Ltmp186:
	movq	-2376(%rbp), %rdi       # 8-byte Reload
	callq	_ZN4llvm11raw_ostreamlsEj
.Ltmp187:
	movq	%rax, -2384(%rbp)       # 8-byte Spill
	jmp	.LBB0_394
.LBB0_394:                              #   in Loop: Header=BB0_1 Depth=1
.Ltmp188:
	movl	$.L.str.45, %esi
	movq	-2384(%rbp), %rdi       # 8-byte Reload
	callq	_ZN4llvm11raw_ostreamlsEPKc
.Ltmp189:
	movq	%rax, -2392(%rbp)       # 8-byte Spill
	jmp	.LBB0_395
.LBB0_395:                              #   in Loop: Header=BB0_1 Depth=1
	movl	-168(%rbp), %esi
.Ltmp190:
	movq	-2392(%rbp), %rdi       # 8-byte Reload
	callq	_ZN4llvm11raw_ostreamlsEj
.Ltmp191:
	movq	%rax, -2400(%rbp)       # 8-byte Spill
	jmp	.LBB0_396
.LBB0_396:                              #   in Loop: Header=BB0_1 Depth=1
.Ltmp192:
	movl	$.L.str.46, %esi
	movq	-2400(%rbp), %rdi       # 8-byte Reload
	callq	_ZN4llvm11raw_ostreamlsEPKc
.Ltmp193:
	movq	%rax, -2408(%rbp)       # 8-byte Spill
	jmp	.LBB0_397
.LBB0_397:                              #   in Loop: Header=BB0_1 Depth=1
	movl	-176(%rbp), %esi
.Ltmp194:
	movq	-2408(%rbp), %rdi       # 8-byte Reload
	callq	_ZN4llvm11raw_ostreamlsEj
.Ltmp195:
	movq	%rax, -2416(%rbp)       # 8-byte Spill
	jmp	.LBB0_398
.LBB0_398:                              #   in Loop: Header=BB0_1 Depth=1
.Ltmp196:
	movl	$.L.str.47, %esi
	movq	-2416(%rbp), %rdi       # 8-byte Reload
	callq	_ZN4llvm11raw_ostreamlsEPKc
.Ltmp197:
	movq	%rax, -2424(%rbp)       # 8-byte Spill
	jmp	.LBB0_399
.LBB0_399:                              #   in Loop: Header=BB0_1 Depth=1
	movl	-228(%rbp), %esi
.Ltmp198:
	movq	-2424(%rbp), %rdi       # 8-byte Reload
	callq	_ZN4llvm11raw_ostreamlsEj
.Ltmp199:
	movq	%rax, -2432(%rbp)       # 8-byte Spill
	jmp	.LBB0_400
.LBB0_400:                              #   in Loop: Header=BB0_1 Depth=1
.Ltmp200:
	movl	$.L.str.48, %esi
	movq	-2432(%rbp), %rdi       # 8-byte Reload
	callq	_ZN4llvm11raw_ostreamlsEPKc
.Ltmp201:
	movq	%rax, -2440(%rbp)       # 8-byte Spill
	jmp	.LBB0_401
.LBB0_401:                              #   in Loop: Header=BB0_1 Depth=1
	movl	-232(%rbp), %esi
.Ltmp202:
	movq	-2440(%rbp), %rdi       # 8-byte Reload
	callq	_ZN4llvm11raw_ostreamlsEj
.Ltmp203:
	movq	%rax, -2448(%rbp)       # 8-byte Spill
	jmp	.LBB0_402
.LBB0_402:                              #   in Loop: Header=BB0_1 Depth=1
.Ltmp204:
	movl	$.L.str.49, %esi
	movq	-2448(%rbp), %rdi       # 8-byte Reload
	callq	_ZN4llvm11raw_ostreamlsEPKc
.Ltmp205:
	movq	%rax, -2456(%rbp)       # 8-byte Spill
	jmp	.LBB0_403
.LBB0_403:                              #   in Loop: Header=BB0_1 Depth=1
	movl	-236(%rbp), %esi
.Ltmp206:
	movq	-2456(%rbp), %rdi       # 8-byte Reload
	callq	_ZN4llvm11raw_ostreamlsEj
.Ltmp207:
	movq	%rax, -2464(%rbp)       # 8-byte Spill
	jmp	.LBB0_404
.LBB0_404:                              #   in Loop: Header=BB0_1 Depth=1
.Ltmp208:
	movl	$.L.str.50, %esi
	movq	-2464(%rbp), %rdi       # 8-byte Reload
	callq	_ZN4llvm11raw_ostreamlsEPKc
.Ltmp209:
	movq	%rax, -2472(%rbp)       # 8-byte Spill
	jmp	.LBB0_405
.LBB0_405:                              #   in Loop: Header=BB0_1 Depth=1
	movl	-240(%rbp), %esi
.Ltmp210:
	movq	-2472(%rbp), %rdi       # 8-byte Reload
	callq	_ZN4llvm11raw_ostreamlsEj
.Ltmp211:
	movq	%rax, -2480(%rbp)       # 8-byte Spill
	jmp	.LBB0_406
.LBB0_406:                              #   in Loop: Header=BB0_1 Depth=1
.Ltmp212:
	movl	$.L.str.51, %esi
	movq	-2480(%rbp), %rdi       # 8-byte Reload
	callq	_ZN4llvm11raw_ostreamlsEPKc
.Ltmp213:
	movq	%rax, -2488(%rbp)       # 8-byte Spill
	jmp	.LBB0_407
.LBB0_407:                              #   in Loop: Header=BB0_1 Depth=1
	movl	-252(%rbp), %esi
.Ltmp214:
	movq	-2488(%rbp), %rdi       # 8-byte Reload
	callq	_ZN4llvm11raw_ostreamlsEj
.Ltmp215:
	movq	%rax, -2496(%rbp)       # 8-byte Spill
	jmp	.LBB0_408
.LBB0_408:                              #   in Loop: Header=BB0_1 Depth=1
.Ltmp216:
	movl	$.L.str.52, %esi
	movq	-2496(%rbp), %rdi       # 8-byte Reload
	callq	_ZN4llvm11raw_ostreamlsEPKc
.Ltmp217:
	movq	%rax, -2504(%rbp)       # 8-byte Spill
	jmp	.LBB0_409
.LBB0_409:                              #   in Loop: Header=BB0_1 Depth=1
	movl	-256(%rbp), %esi
.Ltmp218:
	movq	-2504(%rbp), %rdi       # 8-byte Reload
	callq	_ZN4llvm11raw_ostreamlsEj
.Ltmp219:
	movq	%rax, -2512(%rbp)       # 8-byte Spill
	jmp	.LBB0_410
.LBB0_410:                              #   in Loop: Header=BB0_1 Depth=1
.Ltmp220:
	movl	$.L.str.53, %esi
	movq	-2512(%rbp), %rdi       # 8-byte Reload
	callq	_ZN4llvm11raw_ostreamlsEPKc
.Ltmp221:
	movq	%rax, -2520(%rbp)       # 8-byte Spill
	jmp	.LBB0_411
.LBB0_411:                              #   in Loop: Header=BB0_1 Depth=1
	movl	-244(%rbp), %esi
.Ltmp222:
	movq	-2520(%rbp), %rdi       # 8-byte Reload
	callq	_ZN4llvm11raw_ostreamlsEj
.Ltmp223:
	movq	%rax, -2528(%rbp)       # 8-byte Spill
	jmp	.LBB0_412
.LBB0_412:                              #   in Loop: Header=BB0_1 Depth=1
.Ltmp224:
	movl	$.L.str.54, %esi
	movq	-2528(%rbp), %rdi       # 8-byte Reload
	callq	_ZN4llvm11raw_ostreamlsEPKc
.Ltmp225:
	movq	%rax, -2536(%rbp)       # 8-byte Spill
	jmp	.LBB0_413
.LBB0_413:                              #   in Loop: Header=BB0_1 Depth=1
	movl	-260(%rbp), %esi
.Ltmp226:
	movq	-2536(%rbp), %rdi       # 8-byte Reload
	callq	_ZN4llvm11raw_ostreamlsEj
.Ltmp227:
	movq	%rax, -2544(%rbp)       # 8-byte Spill
	jmp	.LBB0_414
.LBB0_414:                              #   in Loop: Header=BB0_1 Depth=1
.Ltmp228:
	movl	$.L.str.55, %esi
	movq	-2544(%rbp), %rdi       # 8-byte Reload
	callq	_ZN4llvm11raw_ostreamlsEPKc
.Ltmp229:
	movq	%rax, -2552(%rbp)       # 8-byte Spill
	jmp	.LBB0_415
.LBB0_415:                              #   in Loop: Header=BB0_1 Depth=1
	movl	-248(%rbp), %esi
.Ltmp230:
	movq	-2552(%rbp), %rdi       # 8-byte Reload
	callq	_ZN4llvm11raw_ostreamlsEj
.Ltmp231:
	movq	%rax, -2560(%rbp)       # 8-byte Spill
	jmp	.LBB0_416
.LBB0_416:                              #   in Loop: Header=BB0_1 Depth=1
.Ltmp232:
	movl	$.L.str.56, %esi
	movq	-2560(%rbp), %rdi       # 8-byte Reload
	callq	_ZN4llvm11raw_ostreamlsEPKc
.Ltmp233:
	movq	%rax, -2568(%rbp)       # 8-byte Spill
	jmp	.LBB0_417
.LBB0_417:                              #   in Loop: Header=BB0_1 Depth=1
	movl	-264(%rbp), %esi
.Ltmp234:
	movq	-2568(%rbp), %rdi       # 8-byte Reload
	callq	_ZN4llvm11raw_ostreamlsEj
.Ltmp235:
	movq	%rax, -2576(%rbp)       # 8-byte Spill
	jmp	.LBB0_418
.LBB0_418:                              #   in Loop: Header=BB0_1 Depth=1
.Ltmp236:
	movl	$.L.str.57, %esi
	movq	-2576(%rbp), %rdi       # 8-byte Reload
	callq	_ZN4llvm11raw_ostreamlsEPKc
.Ltmp237:
	jmp	.LBB0_419
.LBB0_419:                              #   in Loop: Header=BB0_1 Depth=1
	leaq	-400(%rbp), %rdi
	callq	_ZNSt3setIPN4llvm14GlobalVariableESt4lessIS2_ESaIS2_EED2Ev
	leaq	-352(%rbp), %rdi
	callq	_ZNSt3setIPN4llvm5ValueESt4lessIS2_ESaIS2_EED2Ev
.LBB0_420:                              #   in Loop: Header=BB0_1 Depth=1
	jmp	.LBB0_421
.LBB0_421:                              #   in Loop: Header=BB0_1 Depth=1
	leaq	-32(%rbp), %rdi
	callq	_ZN4llvm14ilist_iteratorINS_12ilist_detail12node_optionsINS_8FunctionELb0ELb0EvEELb0ELb0EEppEv
	jmp	.LBB0_1
.LBB0_422:
	addq	$2576, %rsp             # imm = 0xA10
	popq	%rbp
	.cfi_def_cfa %rsp, 8
	retq
.LBB0_423:
	.cfi_def_cfa %rbp, 16
	movq	-424(%rbp), %rdi
	callq	_Unwind_Resume
.Lfunc_end0:
	.size	_ZN17feature_extractor16FeatureExtractorC2ERN4llvm6ModuleE, .Lfunc_end0-_ZN17feature_extractor16FeatureExtractorC2ERN4llvm6ModuleE
	.cfi_endproc
	.section	.gcc_except_table,"a",@progbits
	.p2align	2
GCC_except_table0:
.Lexception0:
	.byte	255                     # @LPStart Encoding = omit
	.byte	255                     # @TType Encoding = omit
	.byte	1                       # Call site Encoding = uleb128
	.uleb128 .Lcst_end0-.Lcst_begin0
.Lcst_begin0:
	.uleb128 .Lfunc_begin0-.Lfunc_begin0 # >> Call Site 1 <<
	.uleb128 .Ltmp0-.Lfunc_begin0   #   Call between .Lfunc_begin0 and .Ltmp0
	.byte	0                       #     has no landing pad
	.byte	0                       #   On action: cleanup
	.uleb128 .Ltmp0-.Lfunc_begin0   # >> Call Site 2 <<
	.uleb128 .Ltmp237-.Ltmp0        #   Call between .Ltmp0 and .Ltmp237
	.uleb128 .Ltmp426-.Lfunc_begin0 #     jumps to .Ltmp426
	.byte	0                       #   On action: cleanup
	.uleb128 .Ltmp237-.Lfunc_begin0 # >> Call Site 3 <<
	.uleb128 .Lfunc_end0-.Ltmp237   #   Call between .Ltmp237 and .Lfunc_end0
	.byte	0                       #     has no landing pad
	.byte	0                       #   On action: cleanup
.Lcst_end0:
	.p2align	2
                                        # -- End function
	.section	.text._ZN4llvm6Module5beginEv,"axG",@progbits,_ZN4llvm6Module5beginEv,comdat
	.weak	_ZN4llvm6Module5beginEv # -- Begin function _ZN4llvm6Module5beginEv
	.p2align	4, 0x90
	.type	_ZN4llvm6Module5beginEv,@function
_ZN4llvm6Module5beginEv:                # @_ZN4llvm6Module5beginEv
	.cfi_startproc
# %bb.0:
	pushq	%rbp
	.cfi_def_cfa_offset 16
	.cfi_offset %rbp, -16
	movq	%rsp, %rbp
	.cfi_def_cfa_register %rbp
	subq	$16, %rsp
	movq	%rdi, -16(%rbp)
	movq	-16(%rbp), %rax
	addq	$24, %rax
	movq	%rax, %rdi
	callq	_ZN4llvm12simple_ilistINS_8FunctionEJEE5beginEv
	movq	%rax, -8(%rbp)
	movq	-8(%rbp), %rax
	addq	$16, %rsp
	popq	%rbp
	.cfi_def_cfa %rsp, 8
	retq
.Lfunc_end1:
	.size	_ZN4llvm6Module5beginEv, .Lfunc_end1-_ZN4llvm6Module5beginEv
	.cfi_endproc
                                        # -- End function
	.section	.text._ZN4llvm6Module3endEv,"axG",@progbits,_ZN4llvm6Module3endEv,comdat
	.weak	_ZN4llvm6Module3endEv   # -- Begin function _ZN4llvm6Module3endEv
	.p2align	4, 0x90
	.type	_ZN4llvm6Module3endEv,@function
_ZN4llvm6Module3endEv:                  # @_ZN4llvm6Module3endEv
	.cfi_startproc
# %bb.0:
	pushq	%rbp
	.cfi_def_cfa_offset 16
	.cfi_offset %rbp, -16
	movq	%rsp, %rbp
	.cfi_def_cfa_register %rbp
	subq	$16, %rsp
	movq	%rdi, -16(%rbp)
	movq	-16(%rbp), %rax
	addq	$24, %rax
	movq	%rax, %rdi
	callq	_ZN4llvm12simple_ilistINS_8FunctionEJEE3endEv
	movq	%rax, -8(%rbp)
	movq	-8(%rbp), %rax
	addq	$16, %rsp
	popq	%rbp
	.cfi_def_cfa %rsp, 8
	retq
.Lfunc_end2:
	.size	_ZN4llvm6Module3endEv, .Lfunc_end2-_ZN4llvm6Module3endEv
	.cfi_endproc
                                        # -- End function
	.section	.text._ZN4llvmneERKNS_14ilist_iteratorINS_12ilist_detail12node_optionsINS_8FunctionELb0ELb0EvEELb0ELb0EEES7_,"axG",@progbits,_ZN4llvmneERKNS_14ilist_iteratorINS_12ilist_detail12node_optionsINS_8FunctionELb0ELb0EvEELb0ELb0EEES7_,comdat
	.weak	_ZN4llvmneERKNS_14ilist_iteratorINS_12ilist_detail12node_optionsINS_8FunctionELb0ELb0EvEELb0ELb0EEES7_ # -- Begin function _ZN4llvmneERKNS_14ilist_iteratorINS_12ilist_detail12node_optionsINS_8FunctionELb0ELb0EvEELb0ELb0EEES7_
	.p2align	4, 0x90
	.type	_ZN4llvmneERKNS_14ilist_iteratorINS_12ilist_detail12node_optionsINS_8FunctionELb0ELb0EvEELb0ELb0EEES7_,@function
_ZN4llvmneERKNS_14ilist_iteratorINS_12ilist_detail12node_optionsINS_8FunctionELb0ELb0EvEELb0ELb0EEES7_: # @_ZN4llvmneERKNS_14ilist_iteratorINS_12ilist_detail12node_optionsINS_8FunctionELb0ELb0EvEELb0ELb0EEES7_
	.cfi_startproc
# %bb.0:
	pushq	%rbp
	.cfi_def_cfa_offset 16
	.cfi_offset %rbp, -16
	movq	%rsp, %rbp
	.cfi_def_cfa_register %rbp
	movq	%rdi, -8(%rbp)
	movq	%rsi, -16(%rbp)
	movq	-8(%rbp), %rax
	movq	(%rax), %rax
	movq	-16(%rbp), %rcx
	cmpq	(%rcx), %rax
	setne	%dl
	andb	$1, %dl
	movzbl	%dl, %eax
	popq	%rbp
	.cfi_def_cfa %rsp, 8
	retq
.Lfunc_end3:
	.size	_ZN4llvmneERKNS_14ilist_iteratorINS_12ilist_detail12node_optionsINS_8FunctionELb0ELb0EvEELb0ELb0EEES7_, .Lfunc_end3-_ZN4llvmneERKNS_14ilist_iteratorINS_12ilist_detail12node_optionsINS_8FunctionELb0ELb0EvEELb0ELb0EEES7_
	.cfi_endproc
                                        # -- End function
	.section	.text._ZNK4llvm14ilist_iteratorINS_12ilist_detail12node_optionsINS_8FunctionELb0ELb0EvEELb0ELb0EEdeEv,"axG",@progbits,_ZNK4llvm14ilist_iteratorINS_12ilist_detail12node_optionsINS_8FunctionELb0ELb0EvEELb0ELb0EEdeEv,comdat
	.weak	_ZNK4llvm14ilist_iteratorINS_12ilist_detail12node_optionsINS_8FunctionELb0ELb0EvEELb0ELb0EEdeEv # -- Begin function _ZNK4llvm14ilist_iteratorINS_12ilist_detail12node_optionsINS_8FunctionELb0ELb0EvEELb0ELb0EEdeEv
	.p2align	4, 0x90
	.type	_ZNK4llvm14ilist_iteratorINS_12ilist_detail12node_optionsINS_8FunctionELb0ELb0EvEELb0ELb0EEdeEv,@function
_ZNK4llvm14ilist_iteratorINS_12ilist_detail12node_optionsINS_8FunctionELb0ELb0EvEELb0ELb0EEdeEv: # @_ZNK4llvm14ilist_iteratorINS_12ilist_detail12node_optionsINS_8FunctionELb0ELb0EvEELb0ELb0EEdeEv
	.cfi_startproc
# %bb.0:
	pushq	%rbp
	.cfi_def_cfa_offset 16
	.cfi_offset %rbp, -16
	movq	%rsp, %rbp
	.cfi_def_cfa_register %rbp
	subq	$16, %rsp
	movq	%rdi, -8(%rbp)
	movq	-8(%rbp), %rax
	movq	(%rax), %rcx
	movq	%rcx, %rdi
	movq	%rax, -16(%rbp)         # 8-byte Spill
	callq	_ZNK4llvm15ilist_node_baseILb0EE15isKnownSentinelEv
	xorb	$-1, %al
	testb	$1, %al
	jne	.LBB4_1
	jmp	.LBB4_2
.LBB4_1:
	jmp	.LBB4_3
.LBB4_2:
	movabsq	$.L.str.95, %rdi
	movabsq	$.L.str.96, %rsi
	movl	$139, %edx
	movabsq	$.L__PRETTY_FUNCTION__._ZNK4llvm14ilist_iteratorINS_12ilist_detail12node_optionsINS_8FunctionELb0ELb0EvEELb0ELb0EEdeEv, %rcx
	callq	__assert_fail
.LBB4_3:
	movq	-16(%rbp), %rax         # 8-byte Reload
	movq	(%rax), %rdi
	callq	_ZN4llvm12ilist_detail18SpecificNodeAccessINS0_12node_optionsINS_8FunctionELb0ELb0EvEEE11getValuePtrEPNS_15ilist_node_implIS4_EE
	addq	$16, %rsp
	popq	%rbp
	.cfi_def_cfa %rsp, 8
	retq
.Lfunc_end4:
	.size	_ZNK4llvm14ilist_iteratorINS_12ilist_detail12node_optionsINS_8FunctionELb0ELb0EvEELb0ELb0EEdeEv, .Lfunc_end4-_ZNK4llvm14ilist_iteratorINS_12ilist_detail12node_optionsINS_8FunctionELb0ELb0EvEELb0ELb0EEdeEv
	.cfi_endproc
                                        # -- End function
	.section	.text._ZNSt3setIPN4llvm5ValueESt4lessIS2_ESaIS2_EEC2Ev,"axG",@progbits,_ZNSt3setIPN4llvm5ValueESt4lessIS2_ESaIS2_EEC2Ev,comdat
	.weak	_ZNSt3setIPN4llvm5ValueESt4lessIS2_ESaIS2_EEC2Ev # -- Begin function _ZNSt3setIPN4llvm5ValueESt4lessIS2_ESaIS2_EEC2Ev
	.p2align	4, 0x90
	.type	_ZNSt3setIPN4llvm5ValueESt4lessIS2_ESaIS2_EEC2Ev,@function
_ZNSt3setIPN4llvm5ValueESt4lessIS2_ESaIS2_EEC2Ev: # @_ZNSt3setIPN4llvm5ValueESt4lessIS2_ESaIS2_EEC2Ev
	.cfi_startproc
# %bb.0:
	pushq	%rbp
	.cfi_def_cfa_offset 16
	.cfi_offset %rbp, -16
	movq	%rsp, %rbp
	.cfi_def_cfa_register %rbp
	subq	$16, %rsp
	movq	%rdi, -8(%rbp)
	movq	-8(%rbp), %rdi
	callq	_ZNSt8_Rb_treeIPN4llvm5ValueES2_St9_IdentityIS2_ESt4lessIS2_ESaIS2_EEC2Ev
	addq	$16, %rsp
	popq	%rbp
	.cfi_def_cfa %rsp, 8
	retq
.Lfunc_end5:
	.size	_ZNSt3setIPN4llvm5ValueESt4lessIS2_ESaIS2_EEC2Ev, .Lfunc_end5-_ZNSt3setIPN4llvm5ValueESt4lessIS2_ESaIS2_EEC2Ev
	.cfi_endproc
                                        # -- End function
	.section	.text._ZNSt3setIPN4llvm14GlobalVariableESt4lessIS2_ESaIS2_EEC2Ev,"axG",@progbits,_ZNSt3setIPN4llvm14GlobalVariableESt4lessIS2_ESaIS2_EEC2Ev,comdat
	.weak	_ZNSt3setIPN4llvm14GlobalVariableESt4lessIS2_ESaIS2_EEC2Ev # -- Begin function _ZNSt3setIPN4llvm14GlobalVariableESt4lessIS2_ESaIS2_EEC2Ev
	.p2align	4, 0x90
	.type	_ZNSt3setIPN4llvm14GlobalVariableESt4lessIS2_ESaIS2_EEC2Ev,@function
_ZNSt3setIPN4llvm14GlobalVariableESt4lessIS2_ESaIS2_EEC2Ev: # @_ZNSt3setIPN4llvm14GlobalVariableESt4lessIS2_ESaIS2_EEC2Ev
	.cfi_startproc
# %bb.0:
	pushq	%rbp
	.cfi_def_cfa_offset 16
	.cfi_offset %rbp, -16
	movq	%rsp, %rbp
	.cfi_def_cfa_register %rbp
	subq	$16, %rsp
	movq	%rdi, -8(%rbp)
	movq	-8(%rbp), %rdi
	callq	_ZNSt8_Rb_treeIPN4llvm14GlobalVariableES2_St9_IdentityIS2_ESt4lessIS2_ESaIS2_EEC2Ev
	addq	$16, %rsp
	popq	%rbp
	.cfi_def_cfa %rsp, 8
	retq
.Lfunc_end6:
	.size	_ZNSt3setIPN4llvm14GlobalVariableESt4lessIS2_ESaIS2_EEC2Ev, .Lfunc_end6-_ZNSt3setIPN4llvm14GlobalVariableESt4lessIS2_ESaIS2_EEC2Ev
	.cfi_endproc
                                        # -- End function
	.section	.text._ZN4llvm8Function5beginEv,"axG",@progbits,_ZN4llvm8Function5beginEv,comdat
	.weak	_ZN4llvm8Function5beginEv # -- Begin function _ZN4llvm8Function5beginEv
	.p2align	4, 0x90
	.type	_ZN4llvm8Function5beginEv,@function
_ZN4llvm8Function5beginEv:              # @_ZN4llvm8Function5beginEv
	.cfi_startproc
# %bb.0:
	pushq	%rbp
	.cfi_def_cfa_offset 16
	.cfi_offset %rbp, -16
	movq	%rsp, %rbp
	.cfi_def_cfa_register %rbp
	subq	$16, %rsp
	movq	%rdi, -16(%rbp)
	movq	-16(%rbp), %rax
	addq	$72, %rax
	movq	%rax, %rdi
	callq	_ZN4llvm12simple_ilistINS_10BasicBlockEJEE5beginEv
	movq	%rax, -8(%rbp)
	movq	-8(%rbp), %rax
	addq	$16, %rsp
	popq	%rbp
	.cfi_def_cfa %rsp, 8
	retq
.Lfunc_end7:
	.size	_ZN4llvm8Function5beginEv, .Lfunc_end7-_ZN4llvm8Function5beginEv
	.cfi_endproc
                                        # -- End function
	.section	.text._ZN4llvm8Function3endEv,"axG",@progbits,_ZN4llvm8Function3endEv,comdat
	.weak	_ZN4llvm8Function3endEv # -- Begin function _ZN4llvm8Function3endEv
	.p2align	4, 0x90
	.type	_ZN4llvm8Function3endEv,@function
_ZN4llvm8Function3endEv:                # @_ZN4llvm8Function3endEv
	.cfi_startproc
# %bb.0:
	pushq	%rbp
	.cfi_def_cfa_offset 16
	.cfi_offset %rbp, -16
	movq	%rsp, %rbp
	.cfi_def_cfa_register %rbp
	subq	$16, %rsp
	movq	%rdi, -16(%rbp)
	movq	-16(%rbp), %rax
	addq	$72, %rax
	movq	%rax, %rdi
	callq	_ZN4llvm12simple_ilistINS_10BasicBlockEJEE3endEv
	movq	%rax, -8(%rbp)
	movq	-8(%rbp), %rax
	addq	$16, %rsp
	popq	%rbp
	.cfi_def_cfa %rsp, 8
	retq
.Lfunc_end8:
	.size	_ZN4llvm8Function3endEv, .Lfunc_end8-_ZN4llvm8Function3endEv
	.cfi_endproc
                                        # -- End function
	.section	.text._ZN4llvmneERKNS_14ilist_iteratorINS_12ilist_detail12node_optionsINS_10BasicBlockELb0ELb0EvEELb0ELb0EEES7_,"axG",@progbits,_ZN4llvmneERKNS_14ilist_iteratorINS_12ilist_detail12node_optionsINS_10BasicBlockELb0ELb0EvEELb0ELb0EEES7_,comdat
	.weak	_ZN4llvmneERKNS_14ilist_iteratorINS_12ilist_detail12node_optionsINS_10BasicBlockELb0ELb0EvEELb0ELb0EEES7_ # -- Begin function _ZN4llvmneERKNS_14ilist_iteratorINS_12ilist_detail12node_optionsINS_10BasicBlockELb0ELb0EvEELb0ELb0EEES7_
	.p2align	4, 0x90
	.type	_ZN4llvmneERKNS_14ilist_iteratorINS_12ilist_detail12node_optionsINS_10BasicBlockELb0ELb0EvEELb0ELb0EEES7_,@function
_ZN4llvmneERKNS_14ilist_iteratorINS_12ilist_detail12node_optionsINS_10BasicBlockELb0ELb0EvEELb0ELb0EEES7_: # @_ZN4llvmneERKNS_14ilist_iteratorINS_12ilist_detail12node_optionsINS_10BasicBlockELb0ELb0EvEELb0ELb0EEES7_
	.cfi_startproc
# %bb.0:
	pushq	%rbp
	.cfi_def_cfa_offset 16
	.cfi_offset %rbp, -16
	movq	%rsp, %rbp
	.cfi_def_cfa_register %rbp
	movq	%rdi, -8(%rbp)
	movq	%rsi, -16(%rbp)
	movq	-8(%rbp), %rax
	movq	(%rax), %rax
	movq	-16(%rbp), %rcx
	cmpq	(%rcx), %rax
	setne	%dl
	andb	$1, %dl
	movzbl	%dl, %eax
	popq	%rbp
	.cfi_def_cfa %rsp, 8
	retq
.Lfunc_end9:
	.size	_ZN4llvmneERKNS_14ilist_iteratorINS_12ilist_detail12node_optionsINS_10BasicBlockELb0ELb0EvEELb0ELb0EEES7_, .Lfunc_end9-_ZN4llvmneERKNS_14ilist_iteratorINS_12ilist_detail12node_optionsINS_10BasicBlockELb0ELb0EvEELb0ELb0EEES7_
	.cfi_endproc
                                        # -- End function
	.section	.text._ZNK4llvm14ilist_iteratorINS_12ilist_detail12node_optionsINS_10BasicBlockELb0ELb0EvEELb0ELb0EEdeEv,"axG",@progbits,_ZNK4llvm14ilist_iteratorINS_12ilist_detail12node_optionsINS_10BasicBlockELb0ELb0EvEELb0ELb0EEdeEv,comdat
	.weak	_ZNK4llvm14ilist_iteratorINS_12ilist_detail12node_optionsINS_10BasicBlockELb0ELb0EvEELb0ELb0EEdeEv # -- Begin function _ZNK4llvm14ilist_iteratorINS_12ilist_detail12node_optionsINS_10BasicBlockELb0ELb0EvEELb0ELb0EEdeEv
	.p2align	4, 0x90
	.type	_ZNK4llvm14ilist_iteratorINS_12ilist_detail12node_optionsINS_10BasicBlockELb0ELb0EvEELb0ELb0EEdeEv,@function
_ZNK4llvm14ilist_iteratorINS_12ilist_detail12node_optionsINS_10BasicBlockELb0ELb0EvEELb0ELb0EEdeEv: # @_ZNK4llvm14ilist_iteratorINS_12ilist_detail12node_optionsINS_10BasicBlockELb0ELb0EvEELb0ELb0EEdeEv
	.cfi_startproc
# %bb.0:
	pushq	%rbp
	.cfi_def_cfa_offset 16
	.cfi_offset %rbp, -16
	movq	%rsp, %rbp
	.cfi_def_cfa_register %rbp
	subq	$16, %rsp
	movq	%rdi, -8(%rbp)
	movq	-8(%rbp), %rax
	movq	(%rax), %rcx
	movq	%rcx, %rdi
	movq	%rax, -16(%rbp)         # 8-byte Spill
	callq	_ZNK4llvm15ilist_node_baseILb0EE15isKnownSentinelEv
	xorb	$-1, %al
	testb	$1, %al
	jne	.LBB10_1
	jmp	.LBB10_2
.LBB10_1:
	jmp	.LBB10_3
.LBB10_2:
	movabsq	$.L.str.95, %rdi
	movabsq	$.L.str.96, %rsi
	movl	$139, %edx
	movabsq	$.L__PRETTY_FUNCTION__._ZNK4llvm14ilist_iteratorINS_12ilist_detail12node_optionsINS_10BasicBlockELb0ELb0EvEELb0ELb0EEdeEv, %rcx
	callq	__assert_fail
.LBB10_3:
	movq	-16(%rbp), %rax         # 8-byte Reload
	movq	(%rax), %rdi
	callq	_ZN4llvm12ilist_detail18SpecificNodeAccessINS0_12node_optionsINS_10BasicBlockELb0ELb0EvEEE11getValuePtrEPNS_15ilist_node_implIS4_EE
	addq	$16, %rsp
	popq	%rbp
	.cfi_def_cfa %rsp, 8
	retq
.Lfunc_end10:
	.size	_ZNK4llvm14ilist_iteratorINS_12ilist_detail12node_optionsINS_10BasicBlockELb0ELb0EvEELb0ELb0EEdeEv, .Lfunc_end10-_ZNK4llvm14ilist_iteratorINS_12ilist_detail12node_optionsINS_10BasicBlockELb0ELb0EvEELb0ELb0EEdeEv
	.cfi_endproc
                                        # -- End function
	.section	.text._ZN4llvm10BasicBlock13getTerminatorEv,"axG",@progbits,_ZN4llvm10BasicBlock13getTerminatorEv,comdat
	.weak	_ZN4llvm10BasicBlock13getTerminatorEv # -- Begin function _ZN4llvm10BasicBlock13getTerminatorEv
	.p2align	4, 0x90
	.type	_ZN4llvm10BasicBlock13getTerminatorEv,@function
_ZN4llvm10BasicBlock13getTerminatorEv:  # @_ZN4llvm10BasicBlock13getTerminatorEv
	.cfi_startproc
# %bb.0:
	pushq	%rbp
	.cfi_def_cfa_offset 16
	.cfi_offset %rbp, -16
	movq	%rsp, %rbp
	.cfi_def_cfa_register %rbp
	subq	$16, %rsp
	movq	%rdi, -8(%rbp)
	movq	-8(%rbp), %rdi
	callq	_ZNK4llvm10BasicBlock13getTerminatorEv
	addq	$16, %rsp
	popq	%rbp
	.cfi_def_cfa %rsp, 8
	retq
.Lfunc_end11:
	.size	_ZN4llvm10BasicBlock13getTerminatorEv, .Lfunc_end11-_ZN4llvm10BasicBlock13getTerminatorEv
	.cfi_endproc
                                        # -- End function
	.section	.text._ZN4llvm12predecessorsEPNS_10BasicBlockE,"axG",@progbits,_ZN4llvm12predecessorsEPNS_10BasicBlockE,comdat
	.weak	_ZN4llvm12predecessorsEPNS_10BasicBlockE # -- Begin function _ZN4llvm12predecessorsEPNS_10BasicBlockE
	.p2align	4, 0x90
	.type	_ZN4llvm12predecessorsEPNS_10BasicBlockE,@function
_ZN4llvm12predecessorsEPNS_10BasicBlockE: # @_ZN4llvm12predecessorsEPNS_10BasicBlockE
	.cfi_startproc
# %bb.0:
	pushq	%rbp
	.cfi_def_cfa_offset 16
	.cfi_offset %rbp, -16
	movq	%rsp, %rbp
	.cfi_def_cfa_register %rbp
	subq	$48, %rsp
	movq	%rdi, -24(%rbp)
	movq	-24(%rbp), %rdi
	callq	_ZN4llvm10pred_beginEPNS_10BasicBlockE
	movq	%rax, -32(%rbp)
	movq	-24(%rbp), %rdi
	callq	_ZN4llvm8pred_endEPNS_10BasicBlockE
	movq	%rax, -40(%rbp)
	movq	-32(%rbp), %rsi
	movq	-40(%rbp), %rdx
	leaq	-16(%rbp), %rdi
	callq	_ZN4llvm14iterator_rangeINS_12PredIteratorINS_10BasicBlockENS_5Value18user_iterator_implINS_4UserEEEEEEC2ES7_S7_
	movq	-16(%rbp), %rax
	movq	-8(%rbp), %rdx
	addq	$48, %rsp
	popq	%rbp
	.cfi_def_cfa %rsp, 8
	retq
.Lfunc_end12:
	.size	_ZN4llvm12predecessorsEPNS_10BasicBlockE, .Lfunc_end12-_ZN4llvm12predecessorsEPNS_10BasicBlockE
	.cfi_endproc
                                        # -- End function
	.section	.text._ZNK4llvm14iterator_rangeINS_12PredIteratorINS_10BasicBlockENS_5Value18user_iterator_implINS_4UserEEEEEE5beginEv,"axG",@progbits,_ZNK4llvm14iterator_rangeINS_12PredIteratorINS_10BasicBlockENS_5Value18user_iterator_implINS_4UserEEEEEE5beginEv,comdat
	.weak	_ZNK4llvm14iterator_rangeINS_12PredIteratorINS_10BasicBlockENS_5Value18user_iterator_implINS_4UserEEEEEE5beginEv # -- Begin function _ZNK4llvm14iterator_rangeINS_12PredIteratorINS_10BasicBlockENS_5Value18user_iterator_implINS_4UserEEEEEE5beginEv
	.p2align	4, 0x90
	.type	_ZNK4llvm14iterator_rangeINS_12PredIteratorINS_10BasicBlockENS_5Value18user_iterator_implINS_4UserEEEEEE5beginEv,@function
_ZNK4llvm14iterator_rangeINS_12PredIteratorINS_10BasicBlockENS_5Value18user_iterator_implINS_4UserEEEEEE5beginEv: # @_ZNK4llvm14iterator_rangeINS_12PredIteratorINS_10BasicBlockENS_5Value18user_iterator_implINS_4UserEEEEEE5beginEv
	.cfi_startproc
# %bb.0:
	pushq	%rbp
	.cfi_def_cfa_offset 16
	.cfi_offset %rbp, -16
	movq	%rsp, %rbp
	.cfi_def_cfa_register %rbp
	movq	%rdi, -16(%rbp)
	movq	-16(%rbp), %rax
	movq	(%rax), %rax
	movq	%rax, -8(%rbp)
	movq	-8(%rbp), %rax
	popq	%rbp
	.cfi_def_cfa %rsp, 8
	retq
.Lfunc_end13:
	.size	_ZNK4llvm14iterator_rangeINS_12PredIteratorINS_10BasicBlockENS_5Value18user_iterator_implINS_4UserEEEEEE5beginEv, .Lfunc_end13-_ZNK4llvm14iterator_rangeINS_12PredIteratorINS_10BasicBlockENS_5Value18user_iterator_implINS_4UserEEEEEE5beginEv
	.cfi_endproc
                                        # -- End function
	.section	.text._ZNK4llvm14iterator_rangeINS_12PredIteratorINS_10BasicBlockENS_5Value18user_iterator_implINS_4UserEEEEEE3endEv,"axG",@progbits,_ZNK4llvm14iterator_rangeINS_12PredIteratorINS_10BasicBlockENS_5Value18user_iterator_implINS_4UserEEEEEE3endEv,comdat
	.weak	_ZNK4llvm14iterator_rangeINS_12PredIteratorINS_10BasicBlockENS_5Value18user_iterator_implINS_4UserEEEEEE3endEv # -- Begin function _ZNK4llvm14iterator_rangeINS_12PredIteratorINS_10BasicBlockENS_5Value18user_iterator_implINS_4UserEEEEEE3endEv
	.p2align	4, 0x90
	.type	_ZNK4llvm14iterator_rangeINS_12PredIteratorINS_10BasicBlockENS_5Value18user_iterator_implINS_4UserEEEEEE3endEv,@function
_ZNK4llvm14iterator_rangeINS_12PredIteratorINS_10BasicBlockENS_5Value18user_iterator_implINS_4UserEEEEEE3endEv: # @_ZNK4llvm14iterator_rangeINS_12PredIteratorINS_10BasicBlockENS_5Value18user_iterator_implINS_4UserEEEEEE3endEv
	.cfi_startproc
# %bb.0:
	pushq	%rbp
	.cfi_def_cfa_offset 16
	.cfi_offset %rbp, -16
	movq	%rsp, %rbp
	.cfi_def_cfa_register %rbp
	movq	%rdi, -16(%rbp)
	movq	-16(%rbp), %rax
	movq	8(%rax), %rax
	movq	%rax, -8(%rbp)
	movq	-8(%rbp), %rax
	popq	%rbp
	.cfi_def_cfa %rsp, 8
	retq
.Lfunc_end14:
	.size	_ZNK4llvm14iterator_rangeINS_12PredIteratorINS_10BasicBlockENS_5Value18user_iterator_implINS_4UserEEEEEE3endEv, .Lfunc_end14-_ZNK4llvm14iterator_rangeINS_12PredIteratorINS_10BasicBlockENS_5Value18user_iterator_implINS_4UserEEEEEE3endEv
	.cfi_endproc
                                        # -- End function
	.section	.text._ZNK4llvm12PredIteratorINS_10BasicBlockENS_5Value18user_iterator_implINS_4UserEEEEneERKS6_,"axG",@progbits,_ZNK4llvm12PredIteratorINS_10BasicBlockENS_5Value18user_iterator_implINS_4UserEEEEneERKS6_,comdat
	.weak	_ZNK4llvm12PredIteratorINS_10BasicBlockENS_5Value18user_iterator_implINS_4UserEEEEneERKS6_ # -- Begin function _ZNK4llvm12PredIteratorINS_10BasicBlockENS_5Value18user_iterator_implINS_4UserEEEEneERKS6_
	.p2align	4, 0x90
	.type	_ZNK4llvm12PredIteratorINS_10BasicBlockENS_5Value18user_iterator_implINS_4UserEEEEneERKS6_,@function
_ZNK4llvm12PredIteratorINS_10BasicBlockENS_5Value18user_iterator_implINS_4UserEEEEneERKS6_: # @_ZNK4llvm12PredIteratorINS_10BasicBlockENS_5Value18user_iterator_implINS_4UserEEEEneERKS6_
	.cfi_startproc
# %bb.0:
	pushq	%rbp
	.cfi_def_cfa_offset 16
	.cfi_offset %rbp, -16
	movq	%rsp, %rbp
	.cfi_def_cfa_register %rbp
	subq	$16, %rsp
	movq	%rdi, -8(%rbp)
	movq	%rsi, -16(%rbp)
	movq	-8(%rbp), %rdi
	movq	-16(%rbp), %rsi
	callq	_ZNK4llvm12PredIteratorINS_10BasicBlockENS_5Value18user_iterator_implINS_4UserEEEEeqERKS6_
	xorb	$-1, %al
	andb	$1, %al
	movzbl	%al, %eax
	addq	$16, %rsp
	popq	%rbp
	.cfi_def_cfa %rsp, 8
	retq
.Lfunc_end15:
	.size	_ZNK4llvm12PredIteratorINS_10BasicBlockENS_5Value18user_iterator_implINS_4UserEEEEneERKS6_, .Lfunc_end15-_ZNK4llvm12PredIteratorINS_10BasicBlockENS_5Value18user_iterator_implINS_4UserEEEEneERKS6_
	.cfi_endproc
                                        # -- End function
	.section	.text._ZNK4llvm12PredIteratorINS_10BasicBlockENS_5Value18user_iterator_implINS_4UserEEEEdeEv,"axG",@progbits,_ZNK4llvm12PredIteratorINS_10BasicBlockENS_5Value18user_iterator_implINS_4UserEEEEdeEv,comdat
	.weak	_ZNK4llvm12PredIteratorINS_10BasicBlockENS_5Value18user_iterator_implINS_4UserEEEEdeEv # -- Begin function _ZNK4llvm12PredIteratorINS_10BasicBlockENS_5Value18user_iterator_implINS_4UserEEEEdeEv
	.p2align	4, 0x90
	.type	_ZNK4llvm12PredIteratorINS_10BasicBlockENS_5Value18user_iterator_implINS_4UserEEEEdeEv,@function
_ZNK4llvm12PredIteratorINS_10BasicBlockENS_5Value18user_iterator_implINS_4UserEEEEdeEv: # @_ZNK4llvm12PredIteratorINS_10BasicBlockENS_5Value18user_iterator_implINS_4UserEEEEdeEv
	.cfi_startproc
# %bb.0:
	pushq	%rbp
	.cfi_def_cfa_offset 16
	.cfi_offset %rbp, -16
	movq	%rsp, %rbp
	.cfi_def_cfa_register %rbp
	subq	$32, %rsp
	movq	%rdi, -8(%rbp)
	movq	-8(%rbp), %rax
	movq	%rax, %rdi
	movq	%rax, -16(%rbp)         # 8-byte Spill
	callq	_ZNK4llvm5Value18user_iterator_implINS_4UserEE5atEndEv
	xorl	%ecx, %ecx
                                        # kill: def $cl killed $cl killed $ecx
	testb	$1, %al
	movb	%cl, -17(%rbp)          # 1-byte Spill
	jne	.LBB16_2
# %bb.1:
	movb	$1, %al
	movb	%al, -17(%rbp)          # 1-byte Spill
	jmp	.LBB16_2
.LBB16_2:
	movb	-17(%rbp), %al          # 1-byte Reload
	testb	$1, %al
	jne	.LBB16_3
	jmp	.LBB16_4
.LBB16_3:
	jmp	.LBB16_5
.LBB16_4:
	movabsq	$.L.str.98, %rdi
	movabsq	$.L.str.99, %rsi
	movl	$74, %edx
	movabsq	$.L__PRETTY_FUNCTION__._ZNK4llvm12PredIteratorINS_10BasicBlockENS_5Value18user_iterator_implINS_4UserEEEEdeEv, %rcx
	callq	__assert_fail
.LBB16_5:
	movq	-16(%rbp), %rdi         # 8-byte Reload
	callq	_ZNK4llvm5Value18user_iterator_implINS_4UserEEdeEv
	movq	%rax, %rdi
	callq	_ZN4llvm4castINS_11InstructionENS_4UserEEENS_10cast_rettyIT_PT0_E8ret_typeES6_
	movq	%rax, %rdi
	callq	_ZN4llvm11Instruction9getParentEv
	addq	$32, %rsp
	popq	%rbp
	.cfi_def_cfa %rsp, 8
	retq
.Lfunc_end16:
	.size	_ZNK4llvm12PredIteratorINS_10BasicBlockENS_5Value18user_iterator_implINS_4UserEEEEdeEv, .Lfunc_end16-_ZNK4llvm12PredIteratorINS_10BasicBlockENS_5Value18user_iterator_implINS_4UserEEEEdeEv
	.cfi_endproc
                                        # -- End function
	.section	.text._ZN4llvm12PredIteratorINS_10BasicBlockENS_5Value18user_iterator_implINS_4UserEEEEppEv,"axG",@progbits,_ZN4llvm12PredIteratorINS_10BasicBlockENS_5Value18user_iterator_implINS_4UserEEEEppEv,comdat
	.weak	_ZN4llvm12PredIteratorINS_10BasicBlockENS_5Value18user_iterator_implINS_4UserEEEEppEv # -- Begin function _ZN4llvm12PredIteratorINS_10BasicBlockENS_5Value18user_iterator_implINS_4UserEEEEppEv
	.p2align	4, 0x90
	.type	_ZN4llvm12PredIteratorINS_10BasicBlockENS_5Value18user_iterator_implINS_4UserEEEEppEv,@function
_ZN4llvm12PredIteratorINS_10BasicBlockENS_5Value18user_iterator_implINS_4UserEEEEppEv: # @_ZN4llvm12PredIteratorINS_10BasicBlockENS_5Value18user_iterator_implINS_4UserEEEEppEv
	.cfi_startproc
# %bb.0:
	pushq	%rbp
	.cfi_def_cfa_offset 16
	.cfi_offset %rbp, -16
	movq	%rsp, %rbp
	.cfi_def_cfa_register %rbp
	subq	$32, %rsp
	movq	%rdi, -8(%rbp)
	movq	-8(%rbp), %rax
	movq	%rax, %rdi
	movq	%rax, -16(%rbp)         # 8-byte Spill
	callq	_ZNK4llvm5Value18user_iterator_implINS_4UserEE5atEndEv
	xorl	%ecx, %ecx
                                        # kill: def $cl killed $cl killed $ecx
	testb	$1, %al
	movb	%cl, -17(%rbp)          # 1-byte Spill
	jne	.LBB17_2
# %bb.1:
	movb	$1, %al
	movb	%al, -17(%rbp)          # 1-byte Spill
	jmp	.LBB17_2
.LBB17_2:
	movb	-17(%rbp), %al          # 1-byte Reload
	testb	$1, %al
	jne	.LBB17_3
	jmp	.LBB17_4
.LBB17_3:
	jmp	.LBB17_5
.LBB17_4:
	movabsq	$.L.str.98, %rdi
	movabsq	$.L.str.99, %rsi
	movl	$80, %edx
	movabsq	$.L__PRETTY_FUNCTION__._ZN4llvm12PredIteratorINS_10BasicBlockENS_5Value18user_iterator_implINS_4UserEEEEppEv, %rcx
	callq	__assert_fail
.LBB17_5:
	movq	-16(%rbp), %rdi         # 8-byte Reload
	callq	_ZN4llvm5Value18user_iterator_implINS_4UserEEppEv
	movq	-16(%rbp), %rdi         # 8-byte Reload
	movq	%rax, -32(%rbp)         # 8-byte Spill
	callq	_ZN4llvm12PredIteratorINS_10BasicBlockENS_5Value18user_iterator_implINS_4UserEEEE25advancePastNonTerminatorsEv
	movq	-16(%rbp), %rax         # 8-byte Reload
	addq	$32, %rsp
	popq	%rbp
	.cfi_def_cfa %rsp, 8
	retq
.Lfunc_end17:
	.size	_ZN4llvm12PredIteratorINS_10BasicBlockENS_5Value18user_iterator_implINS_4UserEEEEppEv, .Lfunc_end17-_ZN4llvm12PredIteratorINS_10BasicBlockENS_5Value18user_iterator_implINS_4UserEEEEppEv
	.cfi_endproc
                                        # -- End function
	.section	.text._ZN4llvm10successorsEPNS_10BasicBlockE,"axG",@progbits,_ZN4llvm10successorsEPNS_10BasicBlockE,comdat
	.weak	_ZN4llvm10successorsEPNS_10BasicBlockE # -- Begin function _ZN4llvm10successorsEPNS_10BasicBlockE
	.p2align	4, 0x90
	.type	_ZN4llvm10successorsEPNS_10BasicBlockE,@function
_ZN4llvm10successorsEPNS_10BasicBlockE: # @_ZN4llvm10successorsEPNS_10BasicBlockE
	.cfi_startproc
# %bb.0:
	pushq	%rbp
	.cfi_def_cfa_offset 16
	.cfi_offset %rbp, -16
	movq	%rsp, %rbp
	.cfi_def_cfa_register %rbp
	subq	$64, %rsp
	movq	%rdi, %rax
	movq	%rsi, -8(%rbp)
	movq	-8(%rbp), %rcx
	movq	%rdi, -48(%rbp)         # 8-byte Spill
	movq	%rcx, %rdi
	movq	%rax, -56(%rbp)         # 8-byte Spill
	callq	_ZN4llvm10succ_beginEPNS_10BasicBlockE
	movq	%rax, -24(%rbp)
	movl	%edx, -16(%rbp)
	movq	-8(%rbp), %rdi
	callq	_ZN4llvm8succ_endEPNS_10BasicBlockE
	movq	%rax, -40(%rbp)
	movl	%edx, -32(%rbp)
	movq	-24(%rbp), %rsi
	movl	-16(%rbp), %edx
	movq	-40(%rbp), %rcx
	movl	-32(%rbp), %r8d
	movq	-48(%rbp), %rdi         # 8-byte Reload
	callq	_ZN4llvm14iterator_rangeINS_12SuccIteratorINS_11InstructionENS_10BasicBlockEEEEC2ES4_S4_
	movq	-56(%rbp), %rax         # 8-byte Reload
	addq	$64, %rsp
	popq	%rbp
	.cfi_def_cfa %rsp, 8
	retq
.Lfunc_end18:
	.size	_ZN4llvm10successorsEPNS_10BasicBlockE, .Lfunc_end18-_ZN4llvm10successorsEPNS_10BasicBlockE
	.cfi_endproc
                                        # -- End function
	.section	.text._ZNK4llvm14iterator_rangeINS_12SuccIteratorINS_11InstructionENS_10BasicBlockEEEE5beginEv,"axG",@progbits,_ZNK4llvm14iterator_rangeINS_12SuccIteratorINS_11InstructionENS_10BasicBlockEEEE5beginEv,comdat
	.weak	_ZNK4llvm14iterator_rangeINS_12SuccIteratorINS_11InstructionENS_10BasicBlockEEEE5beginEv # -- Begin function _ZNK4llvm14iterator_rangeINS_12SuccIteratorINS_11InstructionENS_10BasicBlockEEEE5beginEv
	.p2align	4, 0x90
	.type	_ZNK4llvm14iterator_rangeINS_12SuccIteratorINS_11InstructionENS_10BasicBlockEEEE5beginEv,@function
_ZNK4llvm14iterator_rangeINS_12SuccIteratorINS_11InstructionENS_10BasicBlockEEEE5beginEv: # @_ZNK4llvm14iterator_rangeINS_12SuccIteratorINS_11InstructionENS_10BasicBlockEEEE5beginEv
	.cfi_startproc
# %bb.0:
	pushq	%rbp
	.cfi_def_cfa_offset 16
	.cfi_offset %rbp, -16
	movq	%rsp, %rbp
	.cfi_def_cfa_register %rbp
	movq	%rdi, -24(%rbp)
	movq	-24(%rbp), %rax
	movups	(%rax), %xmm0
	movaps	%xmm0, -16(%rbp)
	movq	-16(%rbp), %rax
	movl	-8(%rbp), %edx
	popq	%rbp
	.cfi_def_cfa %rsp, 8
	retq
.Lfunc_end19:
	.size	_ZNK4llvm14iterator_rangeINS_12SuccIteratorINS_11InstructionENS_10BasicBlockEEEE5beginEv, .Lfunc_end19-_ZNK4llvm14iterator_rangeINS_12SuccIteratorINS_11InstructionENS_10BasicBlockEEEE5beginEv
	.cfi_endproc
                                        # -- End function
	.section	.text._ZNK4llvm14iterator_rangeINS_12SuccIteratorINS_11InstructionENS_10BasicBlockEEEE3endEv,"axG",@progbits,_ZNK4llvm14iterator_rangeINS_12SuccIteratorINS_11InstructionENS_10BasicBlockEEEE3endEv,comdat
	.weak	_ZNK4llvm14iterator_rangeINS_12SuccIteratorINS_11InstructionENS_10BasicBlockEEEE3endEv # -- Begin function _ZNK4llvm14iterator_rangeINS_12SuccIteratorINS_11InstructionENS_10BasicBlockEEEE3endEv
	.p2align	4, 0x90
	.type	_ZNK4llvm14iterator_rangeINS_12SuccIteratorINS_11InstructionENS_10BasicBlockEEEE3endEv,@function
_ZNK4llvm14iterator_rangeINS_12SuccIteratorINS_11InstructionENS_10BasicBlockEEEE3endEv: # @_ZNK4llvm14iterator_rangeINS_12SuccIteratorINS_11InstructionENS_10BasicBlockEEEE3endEv
	.cfi_startproc
# %bb.0:
	pushq	%rbp
	.cfi_def_cfa_offset 16
	.cfi_offset %rbp, -16
	movq	%rsp, %rbp
	.cfi_def_cfa_register %rbp
	movq	%rdi, -24(%rbp)
	movq	-24(%rbp), %rax
	movups	16(%rax), %xmm0
	movaps	%xmm0, -16(%rbp)
	movq	-16(%rbp), %rax
	movl	-8(%rbp), %edx
	popq	%rbp
	.cfi_def_cfa %rsp, 8
	retq
.Lfunc_end20:
	.size	_ZNK4llvm14iterator_rangeINS_12SuccIteratorINS_11InstructionENS_10BasicBlockEEEE3endEv, .Lfunc_end20-_ZNK4llvm14iterator_rangeINS_12SuccIteratorINS_11InstructionENS_10BasicBlockEEEE3endEv
	.cfi_endproc
                                        # -- End function
	.section	.text._ZNK4llvm20iterator_facade_baseINS_12SuccIteratorINS_11InstructionENS_10BasicBlockEEESt26random_access_iterator_tagS3_iPS3_S6_EneERKS4_,"axG",@progbits,_ZNK4llvm20iterator_facade_baseINS_12SuccIteratorINS_11InstructionENS_10BasicBlockEEESt26random_access_iterator_tagS3_iPS3_S6_EneERKS4_,comdat
	.weak	_ZNK4llvm20iterator_facade_baseINS_12SuccIteratorINS_11InstructionENS_10BasicBlockEEESt26random_access_iterator_tagS3_iPS3_S6_EneERKS4_ # -- Begin function _ZNK4llvm20iterator_facade_baseINS_12SuccIteratorINS_11InstructionENS_10BasicBlockEEESt26random_access_iterator_tagS3_iPS3_S6_EneERKS4_
	.p2align	4, 0x90
	.type	_ZNK4llvm20iterator_facade_baseINS_12SuccIteratorINS_11InstructionENS_10BasicBlockEEESt26random_access_iterator_tagS3_iPS3_S6_EneERKS4_,@function
_ZNK4llvm20iterator_facade_baseINS_12SuccIteratorINS_11InstructionENS_10BasicBlockEEESt26random_access_iterator_tagS3_iPS3_S6_EneERKS4_: # @_ZNK4llvm20iterator_facade_baseINS_12SuccIteratorINS_11InstructionENS_10BasicBlockEEESt26random_access_iterator_tagS3_iPS3_S6_EneERKS4_
	.cfi_startproc
# %bb.0:
	pushq	%rbp
	.cfi_def_cfa_offset 16
	.cfi_offset %rbp, -16
	movq	%rsp, %rbp
	.cfi_def_cfa_register %rbp
	subq	$16, %rsp
	movq	%rdi, -8(%rbp)
	movq	%rsi, -16(%rbp)
	movq	-8(%rbp), %rax
	movq	-16(%rbp), %rsi
	movq	%rax, %rdi
	callq	_ZNK4llvm12SuccIteratorINS_11InstructionENS_10BasicBlockEEeqERKS3_
	xorb	$-1, %al
	andb	$1, %al
	movzbl	%al, %eax
	addq	$16, %rsp
	popq	%rbp
	.cfi_def_cfa %rsp, 8
	retq
.Lfunc_end21:
	.size	_ZNK4llvm20iterator_facade_baseINS_12SuccIteratorINS_11InstructionENS_10BasicBlockEEESt26random_access_iterator_tagS3_iPS3_S6_EneERKS4_, .Lfunc_end21-_ZNK4llvm20iterator_facade_baseINS_12SuccIteratorINS_11InstructionENS_10BasicBlockEEESt26random_access_iterator_tagS3_iPS3_S6_EneERKS4_
	.cfi_endproc
                                        # -- End function
	.section	.text._ZNK4llvm12SuccIteratorINS_11InstructionENS_10BasicBlockEEdeEv,"axG",@progbits,_ZNK4llvm12SuccIteratorINS_11InstructionENS_10BasicBlockEEdeEv,comdat
	.weak	_ZNK4llvm12SuccIteratorINS_11InstructionENS_10BasicBlockEEdeEv # -- Begin function _ZNK4llvm12SuccIteratorINS_11InstructionENS_10BasicBlockEEdeEv
	.p2align	4, 0x90
	.type	_ZNK4llvm12SuccIteratorINS_11InstructionENS_10BasicBlockEEdeEv,@function
_ZNK4llvm12SuccIteratorINS_11InstructionENS_10BasicBlockEEdeEv: # @_ZNK4llvm12SuccIteratorINS_11InstructionENS_10BasicBlockEEdeEv
	.cfi_startproc
# %bb.0:
	pushq	%rbp
	.cfi_def_cfa_offset 16
	.cfi_offset %rbp, -16
	movq	%rsp, %rbp
	.cfi_def_cfa_register %rbp
	subq	$16, %rsp
	movq	%rdi, -8(%rbp)
	movq	-8(%rbp), %rax
	movq	(%rax), %rdi
	movl	8(%rax), %esi
	callq	_ZNK4llvm11Instruction12getSuccessorEj
	addq	$16, %rsp
	popq	%rbp
	.cfi_def_cfa %rsp, 8
	retq
.Lfunc_end22:
	.size	_ZNK4llvm12SuccIteratorINS_11InstructionENS_10BasicBlockEEdeEv, .Lfunc_end22-_ZNK4llvm12SuccIteratorINS_11InstructionENS_10BasicBlockEEdeEv
	.cfi_endproc
                                        # -- End function
	.section	.text._ZN4llvm20iterator_facade_baseINS_12SuccIteratorINS_11InstructionENS_10BasicBlockEEESt26random_access_iterator_tagS3_iPS3_S6_EppEv,"axG",@progbits,_ZN4llvm20iterator_facade_baseINS_12SuccIteratorINS_11InstructionENS_10BasicBlockEEESt26random_access_iterator_tagS3_iPS3_S6_EppEv,comdat
	.weak	_ZN4llvm20iterator_facade_baseINS_12SuccIteratorINS_11InstructionENS_10BasicBlockEEESt26random_access_iterator_tagS3_iPS3_S6_EppEv # -- Begin function _ZN4llvm20iterator_facade_baseINS_12SuccIteratorINS_11InstructionENS_10BasicBlockEEESt26random_access_iterator_tagS3_iPS3_S6_EppEv
	.p2align	4, 0x90
	.type	_ZN4llvm20iterator_facade_baseINS_12SuccIteratorINS_11InstructionENS_10BasicBlockEEESt26random_access_iterator_tagS3_iPS3_S6_EppEv,@function
_ZN4llvm20iterator_facade_baseINS_12SuccIteratorINS_11InstructionENS_10BasicBlockEEESt26random_access_iterator_tagS3_iPS3_S6_EppEv: # @_ZN4llvm20iterator_facade_baseINS_12SuccIteratorINS_11InstructionENS_10BasicBlockEEESt26random_access_iterator_tagS3_iPS3_S6_EppEv
	.cfi_startproc
# %bb.0:
	pushq	%rbp
	.cfi_def_cfa_offset 16
	.cfi_offset %rbp, -16
	movq	%rsp, %rbp
	.cfi_def_cfa_register %rbp
	subq	$16, %rsp
	movq	%rdi, -8(%rbp)
	movq	-8(%rbp), %rax
	movq	%rax, %rdi
	movl	$1, %esi
	callq	_ZN4llvm12SuccIteratorINS_11InstructionENS_10BasicBlockEEpLEi
	addq	$16, %rsp
	popq	%rbp
	.cfi_def_cfa %rsp, 8
	retq
.Lfunc_end23:
	.size	_ZN4llvm20iterator_facade_baseINS_12SuccIteratorINS_11InstructionENS_10BasicBlockEEESt26random_access_iterator_tagS3_iPS3_S6_EppEv, .Lfunc_end23-_ZN4llvm20iterator_facade_baseINS_12SuccIteratorINS_11InstructionENS_10BasicBlockEEESt26random_access_iterator_tagS3_iPS3_S6_EppEv
	.cfi_endproc
                                        # -- End function
	.section	.text._ZN4llvm10BasicBlock5beginEv,"axG",@progbits,_ZN4llvm10BasicBlock5beginEv,comdat
	.weak	_ZN4llvm10BasicBlock5beginEv # -- Begin function _ZN4llvm10BasicBlock5beginEv
	.p2align	4, 0x90
	.type	_ZN4llvm10BasicBlock5beginEv,@function
_ZN4llvm10BasicBlock5beginEv:           # @_ZN4llvm10BasicBlock5beginEv
	.cfi_startproc
# %bb.0:
	pushq	%rbp
	.cfi_def_cfa_offset 16
	.cfi_offset %rbp, -16
	movq	%rsp, %rbp
	.cfi_def_cfa_register %rbp
	subq	$16, %rsp
	movq	%rdi, -16(%rbp)
	movq	-16(%rbp), %rax
	addq	$40, %rax
	movq	%rax, %rdi
	callq	_ZN4llvm12simple_ilistINS_11InstructionEJEE5beginEv
	movq	%rax, -8(%rbp)
	movq	-8(%rbp), %rax
	addq	$16, %rsp
	popq	%rbp
	.cfi_def_cfa %rsp, 8
	retq
.Lfunc_end24:
	.size	_ZN4llvm10BasicBlock5beginEv, .Lfunc_end24-_ZN4llvm10BasicBlock5beginEv
	.cfi_endproc
                                        # -- End function
	.section	.text._ZN4llvm10BasicBlock3endEv,"axG",@progbits,_ZN4llvm10BasicBlock3endEv,comdat
	.weak	_ZN4llvm10BasicBlock3endEv # -- Begin function _ZN4llvm10BasicBlock3endEv
	.p2align	4, 0x90
	.type	_ZN4llvm10BasicBlock3endEv,@function
_ZN4llvm10BasicBlock3endEv:             # @_ZN4llvm10BasicBlock3endEv
	.cfi_startproc
# %bb.0:
	pushq	%rbp
	.cfi_def_cfa_offset 16
	.cfi_offset %rbp, -16
	movq	%rsp, %rbp
	.cfi_def_cfa_register %rbp
	subq	$16, %rsp
	movq	%rdi, -16(%rbp)
	movq	-16(%rbp), %rax
	addq	$40, %rax
	movq	%rax, %rdi
	callq	_ZN4llvm12simple_ilistINS_11InstructionEJEE3endEv
	movq	%rax, -8(%rbp)
	movq	-8(%rbp), %rax
	addq	$16, %rsp
	popq	%rbp
	.cfi_def_cfa %rsp, 8
	retq
.Lfunc_end25:
	.size	_ZN4llvm10BasicBlock3endEv, .Lfunc_end25-_ZN4llvm10BasicBlock3endEv
	.cfi_endproc
                                        # -- End function
	.section	.text._ZN4llvmneERKNS_14ilist_iteratorINS_12ilist_detail12node_optionsINS_11InstructionELb0ELb0EvEELb0ELb0EEES7_,"axG",@progbits,_ZN4llvmneERKNS_14ilist_iteratorINS_12ilist_detail12node_optionsINS_11InstructionELb0ELb0EvEELb0ELb0EEES7_,comdat
	.weak	_ZN4llvmneERKNS_14ilist_iteratorINS_12ilist_detail12node_optionsINS_11InstructionELb0ELb0EvEELb0ELb0EEES7_ # -- Begin function _ZN4llvmneERKNS_14ilist_iteratorINS_12ilist_detail12node_optionsINS_11InstructionELb0ELb0EvEELb0ELb0EEES7_
	.p2align	4, 0x90
	.type	_ZN4llvmneERKNS_14ilist_iteratorINS_12ilist_detail12node_optionsINS_11InstructionELb0ELb0EvEELb0ELb0EEES7_,@function
_ZN4llvmneERKNS_14ilist_iteratorINS_12ilist_detail12node_optionsINS_11InstructionELb0ELb0EvEELb0ELb0EEES7_: # @_ZN4llvmneERKNS_14ilist_iteratorINS_12ilist_detail12node_optionsINS_11InstructionELb0ELb0EvEELb0ELb0EEES7_
	.cfi_startproc
# %bb.0:
	pushq	%rbp
	.cfi_def_cfa_offset 16
	.cfi_offset %rbp, -16
	movq	%rsp, %rbp
	.cfi_def_cfa_register %rbp
	movq	%rdi, -8(%rbp)
	movq	%rsi, -16(%rbp)
	movq	-8(%rbp), %rax
	movq	(%rax), %rax
	movq	-16(%rbp), %rcx
	cmpq	(%rcx), %rax
	setne	%dl
	andb	$1, %dl
	movzbl	%dl, %eax
	popq	%rbp
	.cfi_def_cfa %rsp, 8
	retq
.Lfunc_end26:
	.size	_ZN4llvmneERKNS_14ilist_iteratorINS_12ilist_detail12node_optionsINS_11InstructionELb0ELb0EvEELb0ELb0EEES7_, .Lfunc_end26-_ZN4llvmneERKNS_14ilist_iteratorINS_12ilist_detail12node_optionsINS_11InstructionELb0ELb0EvEELb0ELb0EEES7_
	.cfi_endproc
                                        # -- End function
	.section	.text._ZNK4llvm14ilist_iteratorINS_12ilist_detail12node_optionsINS_11InstructionELb0ELb0EvEELb0ELb0EEdeEv,"axG",@progbits,_ZNK4llvm14ilist_iteratorINS_12ilist_detail12node_optionsINS_11InstructionELb0ELb0EvEELb0ELb0EEdeEv,comdat
	.weak	_ZNK4llvm14ilist_iteratorINS_12ilist_detail12node_optionsINS_11InstructionELb0ELb0EvEELb0ELb0EEdeEv # -- Begin function _ZNK4llvm14ilist_iteratorINS_12ilist_detail12node_optionsINS_11InstructionELb0ELb0EvEELb0ELb0EEdeEv
	.p2align	4, 0x90
	.type	_ZNK4llvm14ilist_iteratorINS_12ilist_detail12node_optionsINS_11InstructionELb0ELb0EvEELb0ELb0EEdeEv,@function
_ZNK4llvm14ilist_iteratorINS_12ilist_detail12node_optionsINS_11InstructionELb0ELb0EvEELb0ELb0EEdeEv: # @_ZNK4llvm14ilist_iteratorINS_12ilist_detail12node_optionsINS_11InstructionELb0ELb0EvEELb0ELb0EEdeEv
	.cfi_startproc
# %bb.0:
	pushq	%rbp
	.cfi_def_cfa_offset 16
	.cfi_offset %rbp, -16
	movq	%rsp, %rbp
	.cfi_def_cfa_register %rbp
	subq	$16, %rsp
	movq	%rdi, -8(%rbp)
	movq	-8(%rbp), %rax
	movq	(%rax), %rcx
	movq	%rcx, %rdi
	movq	%rax, -16(%rbp)         # 8-byte Spill
	callq	_ZNK4llvm15ilist_node_baseILb0EE15isKnownSentinelEv
	xorb	$-1, %al
	testb	$1, %al
	jne	.LBB27_1
	jmp	.LBB27_2
.LBB27_1:
	jmp	.LBB27_3
.LBB27_2:
	movabsq	$.L.str.95, %rdi
	movabsq	$.L.str.96, %rsi
	movl	$139, %edx
	movabsq	$.L__PRETTY_FUNCTION__._ZNK4llvm14ilist_iteratorINS_12ilist_detail12node_optionsINS_11InstructionELb0ELb0EvEELb0ELb0EEdeEv, %rcx
	callq	__assert_fail
.LBB27_3:
	movq	-16(%rbp), %rax         # 8-byte Reload
	movq	(%rax), %rdi
	callq	_ZN4llvm12ilist_detail18SpecificNodeAccessINS0_12node_optionsINS_11InstructionELb0ELb0EvEEE11getValuePtrEPNS_15ilist_node_implIS4_EE
	addq	$16, %rsp
	popq	%rbp
	.cfi_def_cfa %rsp, 8
	retq
.Lfunc_end27:
	.size	_ZNK4llvm14ilist_iteratorINS_12ilist_detail12node_optionsINS_11InstructionELb0ELb0EvEELb0ELb0EEdeEv, .Lfunc_end27-_ZNK4llvm14ilist_iteratorINS_12ilist_detail12node_optionsINS_11InstructionELb0ELb0EvEELb0ELb0EEdeEv
	.cfi_endproc
                                        # -- End function
	.section	.text._ZNK4llvm4User14getNumOperandsEv,"axG",@progbits,_ZNK4llvm4User14getNumOperandsEv,comdat
	.weak	_ZNK4llvm4User14getNumOperandsEv # -- Begin function _ZNK4llvm4User14getNumOperandsEv
	.p2align	4, 0x90
	.type	_ZNK4llvm4User14getNumOperandsEv,@function
_ZNK4llvm4User14getNumOperandsEv:       # @_ZNK4llvm4User14getNumOperandsEv
	.cfi_startproc
# %bb.0:
	pushq	%rbp
	.cfi_def_cfa_offset 16
	.cfi_offset %rbp, -16
	movq	%rsp, %rbp
	.cfi_def_cfa_register %rbp
	movq	%rdi, -8(%rbp)
	movq	-8(%rbp), %rax
	movl	20(%rax), %ecx
	andl	$268435455, %ecx        # imm = 0xFFFFFFF
	movl	%ecx, %eax
	popq	%rbp
	.cfi_def_cfa %rsp, 8
	retq
.Lfunc_end28:
	.size	_ZNK4llvm4User14getNumOperandsEv, .Lfunc_end28-_ZNK4llvm4User14getNumOperandsEv
	.cfi_endproc
                                        # -- End function
	.section	.text._ZNK4llvm5Value7getTypeEv,"axG",@progbits,_ZNK4llvm5Value7getTypeEv,comdat
	.weak	_ZNK4llvm5Value7getTypeEv # -- Begin function _ZNK4llvm5Value7getTypeEv
	.p2align	4, 0x90
	.type	_ZNK4llvm5Value7getTypeEv,@function
_ZNK4llvm5Value7getTypeEv:              # @_ZNK4llvm5Value7getTypeEv
	.cfi_startproc
# %bb.0:
	pushq	%rbp
	.cfi_def_cfa_offset 16
	.cfi_offset %rbp, -16
	movq	%rsp, %rbp
	.cfi_def_cfa_register %rbp
	movq	%rdi, -8(%rbp)
	movq	-8(%rbp), %rax
	movq	(%rax), %rax
	popq	%rbp
	.cfi_def_cfa %rsp, 8
	retq
.Lfunc_end29:
	.size	_ZNK4llvm5Value7getTypeEv, .Lfunc_end29-_ZNK4llvm5Value7getTypeEv
	.cfi_endproc
                                        # -- End function
	.section	.text._ZN4llvm8dyn_castINS_9StoreInstENS_11InstructionEEENS_10cast_rettyIT_PT0_E8ret_typeES6_,"axG",@progbits,_ZN4llvm8dyn_castINS_9StoreInstENS_11InstructionEEENS_10cast_rettyIT_PT0_E8ret_typeES6_,comdat
	.weak	_ZN4llvm8dyn_castINS_9StoreInstENS_11InstructionEEENS_10cast_rettyIT_PT0_E8ret_typeES6_ # -- Begin function _ZN4llvm8dyn_castINS_9StoreInstENS_11InstructionEEENS_10cast_rettyIT_PT0_E8ret_typeES6_
	.p2align	4, 0x90
	.type	_ZN4llvm8dyn_castINS_9StoreInstENS_11InstructionEEENS_10cast_rettyIT_PT0_E8ret_typeES6_,@function
_ZN4llvm8dyn_castINS_9StoreInstENS_11InstructionEEENS_10cast_rettyIT_PT0_E8ret_typeES6_: # @_ZN4llvm8dyn_castINS_9StoreInstENS_11InstructionEEENS_10cast_rettyIT_PT0_E8ret_typeES6_
	.cfi_startproc
# %bb.0:
	pushq	%rbp
	.cfi_def_cfa_offset 16
	.cfi_offset %rbp, -16
	movq	%rsp, %rbp
	.cfi_def_cfa_register %rbp
	subq	$16, %rsp
	movq	%rdi, -8(%rbp)
	leaq	-8(%rbp), %rdi
	callq	_ZN4llvm3isaINS_9StoreInstEPNS_11InstructionEEEbRKT0_
	testb	$1, %al
	jne	.LBB30_1
	jmp	.LBB30_2
.LBB30_1:
	movq	-8(%rbp), %rdi
	callq	_ZN4llvm4castINS_9StoreInstENS_11InstructionEEENS_10cast_rettyIT_PT0_E8ret_typeES6_
	movq	%rax, -16(%rbp)         # 8-byte Spill
	jmp	.LBB30_3
.LBB30_2:
	xorl	%eax, %eax
	movl	%eax, %ecx
	movq	%rcx, -16(%rbp)         # 8-byte Spill
	jmp	.LBB30_3
.LBB30_3:
	movq	-16(%rbp), %rax         # 8-byte Reload
	addq	$16, %rsp
	popq	%rbp
	.cfi_def_cfa %rsp, 8
	retq
.Lfunc_end30:
	.size	_ZN4llvm8dyn_castINS_9StoreInstENS_11InstructionEEENS_10cast_rettyIT_PT0_E8ret_typeES6_, .Lfunc_end30-_ZN4llvm8dyn_castINS_9StoreInstENS_11InstructionEEENS_10cast_rettyIT_PT0_E8ret_typeES6_
	.cfi_endproc
                                        # -- End function
	.section	.text._ZNK4llvm4User10getOperandEj,"axG",@progbits,_ZNK4llvm4User10getOperandEj,comdat
	.weak	_ZNK4llvm4User10getOperandEj # -- Begin function _ZNK4llvm4User10getOperandEj
	.p2align	4, 0x90
	.type	_ZNK4llvm4User10getOperandEj,@function
_ZNK4llvm4User10getOperandEj:           # @_ZNK4llvm4User10getOperandEj
	.cfi_startproc
# %bb.0:
	pushq	%rbp
	.cfi_def_cfa_offset 16
	.cfi_offset %rbp, -16
	movq	%rsp, %rbp
	.cfi_def_cfa_register %rbp
	subq	$32, %rsp
	xorl	%eax, %eax
                                        # kill: def $al killed $al killed $eax
	movq	%rdi, -8(%rbp)
	movl	%esi, -12(%rbp)
	movq	-8(%rbp), %rcx
	movl	-12(%rbp), %edx
	movl	20(%rcx), %esi
	andl	$268435455, %esi        # imm = 0xFFFFFFF
	cmpl	%esi, %edx
	movq	%rcx, -24(%rbp)         # 8-byte Spill
	movb	%al, -25(%rbp)          # 1-byte Spill
	jae	.LBB31_2
# %bb.1:
	movb	$1, %al
	movb	%al, -25(%rbp)          # 1-byte Spill
	jmp	.LBB31_2
.LBB31_2:
	movb	-25(%rbp), %al          # 1-byte Reload
	testb	$1, %al
	jne	.LBB31_3
	jmp	.LBB31_4
.LBB31_3:
	jmp	.LBB31_5
.LBB31_4:
	movabsq	$.L.str.69, %rdi
	movabsq	$.L.str.70, %rsi
	movl	$170, %edx
	movabsq	$.L__PRETTY_FUNCTION__._ZNK4llvm4User10getOperandEj, %rcx
	callq	__assert_fail
.LBB31_5:
	movq	-24(%rbp), %rdi         # 8-byte Reload
	callq	_ZNK4llvm4User14getOperandListEv
	movl	-12(%rbp), %ecx
	movl	%ecx, %edx
	imulq	$24, %rdx, %rdx
	addq	%rdx, %rax
	movq	%rax, %rdi
	callq	_ZNK4llvm3UsecvPNS_5ValueEEv
	addq	$32, %rsp
	popq	%rbp
	.cfi_def_cfa %rsp, 8
	retq
.Lfunc_end31:
	.size	_ZNK4llvm4User10getOperandEj, .Lfunc_end31-_ZNK4llvm4User10getOperandEj
	.cfi_endproc
                                        # -- End function
	.section	.text._ZNK4llvm4Type11isPointerTyEv,"axG",@progbits,_ZNK4llvm4Type11isPointerTyEv,comdat
	.weak	_ZNK4llvm4Type11isPointerTyEv # -- Begin function _ZNK4llvm4Type11isPointerTyEv
	.p2align	4, 0x90
	.type	_ZNK4llvm4Type11isPointerTyEv,@function
_ZNK4llvm4Type11isPointerTyEv:          # @_ZNK4llvm4Type11isPointerTyEv
	.cfi_startproc
# %bb.0:
	pushq	%rbp
	.cfi_def_cfa_offset 16
	.cfi_offset %rbp, -16
	movq	%rsp, %rbp
	.cfi_def_cfa_register %rbp
	subq	$16, %rsp
	movq	%rdi, -8(%rbp)
	movq	-8(%rbp), %rdi
	callq	_ZNK4llvm4Type9getTypeIDEv
	cmpl	$15, %eax
	sete	%cl
	andb	$1, %cl
	movzbl	%cl, %eax
	addq	$16, %rsp
	popq	%rbp
	.cfi_def_cfa %rsp, 8
	retq
.Lfunc_end32:
	.size	_ZNK4llvm4Type11isPointerTyEv, .Lfunc_end32-_ZNK4llvm4Type11isPointerTyEv
	.cfi_endproc
                                        # -- End function
	.section	.text._ZN4llvm3isaINS_8FunctionEPNS_5ValueEEEbRKT0_,"axG",@progbits,_ZN4llvm3isaINS_8FunctionEPNS_5ValueEEEbRKT0_,comdat
	.weak	_ZN4llvm3isaINS_8FunctionEPNS_5ValueEEEbRKT0_ # -- Begin function _ZN4llvm3isaINS_8FunctionEPNS_5ValueEEEbRKT0_
	.p2align	4, 0x90
	.type	_ZN4llvm3isaINS_8FunctionEPNS_5ValueEEEbRKT0_,@function
_ZN4llvm3isaINS_8FunctionEPNS_5ValueEEEbRKT0_: # @_ZN4llvm3isaINS_8FunctionEPNS_5ValueEEEbRKT0_
	.cfi_startproc
# %bb.0:
	pushq	%rbp
	.cfi_def_cfa_offset 16
	.cfi_offset %rbp, -16
	movq	%rsp, %rbp
	.cfi_def_cfa_register %rbp
	subq	$16, %rsp
	movq	%rdi, -8(%rbp)
	movq	-8(%rbp), %rdi
	callq	_ZN4llvm13isa_impl_wrapINS_8FunctionEKPNS_5ValueEPKS2_E4doitERS4_
	andb	$1, %al
	movzbl	%al, %eax
	addq	$16, %rsp
	popq	%rbp
	.cfi_def_cfa %rsp, 8
	retq
.Lfunc_end33:
	.size	_ZN4llvm3isaINS_8FunctionEPNS_5ValueEEEbRKT0_, .Lfunc_end33-_ZN4llvm3isaINS_8FunctionEPNS_5ValueEEEbRKT0_
	.cfi_endproc
                                        # -- End function
	.section	.text._ZN4llvm3isaINS_11InstructionEPNS_5ValueEEEbRKT0_,"axG",@progbits,_ZN4llvm3isaINS_11InstructionEPNS_5ValueEEEbRKT0_,comdat
	.weak	_ZN4llvm3isaINS_11InstructionEPNS_5ValueEEEbRKT0_ # -- Begin function _ZN4llvm3isaINS_11InstructionEPNS_5ValueEEEbRKT0_
	.p2align	4, 0x90
	.type	_ZN4llvm3isaINS_11InstructionEPNS_5ValueEEEbRKT0_,@function
_ZN4llvm3isaINS_11InstructionEPNS_5ValueEEEbRKT0_: # @_ZN4llvm3isaINS_11InstructionEPNS_5ValueEEEbRKT0_
	.cfi_startproc
# %bb.0:
	pushq	%rbp
	.cfi_def_cfa_offset 16
	.cfi_offset %rbp, -16
	movq	%rsp, %rbp
	.cfi_def_cfa_register %rbp
	subq	$16, %rsp
	movq	%rdi, -8(%rbp)
	movq	-8(%rbp), %rdi
	callq	_ZN4llvm13isa_impl_wrapINS_11InstructionEKPNS_5ValueEPKS2_E4doitERS4_
	andb	$1, %al
	movzbl	%al, %eax
	addq	$16, %rsp
	popq	%rbp
	.cfi_def_cfa %rsp, 8
	retq
.Lfunc_end34:
	.size	_ZN4llvm3isaINS_11InstructionEPNS_5ValueEEEbRKT0_, .Lfunc_end34-_ZN4llvm3isaINS_11InstructionEPNS_5ValueEEEbRKT0_
	.cfi_endproc
                                        # -- End function
	.section	.text._ZN4llvm8dyn_castINS_10BranchInstENS_11InstructionEEENS_10cast_rettyIT_PT0_E8ret_typeES6_,"axG",@progbits,_ZN4llvm8dyn_castINS_10BranchInstENS_11InstructionEEENS_10cast_rettyIT_PT0_E8ret_typeES6_,comdat
	.weak	_ZN4llvm8dyn_castINS_10BranchInstENS_11InstructionEEENS_10cast_rettyIT_PT0_E8ret_typeES6_ # -- Begin function _ZN4llvm8dyn_castINS_10BranchInstENS_11InstructionEEENS_10cast_rettyIT_PT0_E8ret_typeES6_
	.p2align	4, 0x90
	.type	_ZN4llvm8dyn_castINS_10BranchInstENS_11InstructionEEENS_10cast_rettyIT_PT0_E8ret_typeES6_,@function
_ZN4llvm8dyn_castINS_10BranchInstENS_11InstructionEEENS_10cast_rettyIT_PT0_E8ret_typeES6_: # @_ZN4llvm8dyn_castINS_10BranchInstENS_11InstructionEEENS_10cast_rettyIT_PT0_E8ret_typeES6_
	.cfi_startproc
# %bb.0:
	pushq	%rbp
	.cfi_def_cfa_offset 16
	.cfi_offset %rbp, -16
	movq	%rsp, %rbp
	.cfi_def_cfa_register %rbp
	subq	$16, %rsp
	movq	%rdi, -8(%rbp)
	leaq	-8(%rbp), %rdi
	callq	_ZN4llvm3isaINS_10BranchInstEPNS_11InstructionEEEbRKT0_
	testb	$1, %al
	jne	.LBB35_1
	jmp	.LBB35_2
.LBB35_1:
	movq	-8(%rbp), %rdi
	callq	_ZN4llvm4castINS_10BranchInstENS_11InstructionEEENS_10cast_rettyIT_PT0_E8ret_typeES6_
	movq	%rax, -16(%rbp)         # 8-byte Spill
	jmp	.LBB35_3
.LBB35_2:
	xorl	%eax, %eax
	movl	%eax, %ecx
	movq	%rcx, -16(%rbp)         # 8-byte Spill
	jmp	.LBB35_3
.LBB35_3:
	movq	-16(%rbp), %rax         # 8-byte Reload
	addq	$16, %rsp
	popq	%rbp
	.cfi_def_cfa %rsp, 8
	retq
.Lfunc_end35:
	.size	_ZN4llvm8dyn_castINS_10BranchInstENS_11InstructionEEENS_10cast_rettyIT_PT0_E8ret_typeES6_, .Lfunc_end35-_ZN4llvm8dyn_castINS_10BranchInstENS_11InstructionEEENS_10cast_rettyIT_PT0_E8ret_typeES6_
	.cfi_endproc
                                        # -- End function
	.section	.text._ZNK4llvm10BranchInst13isConditionalEv,"axG",@progbits,_ZNK4llvm10BranchInst13isConditionalEv,comdat
	.weak	_ZNK4llvm10BranchInst13isConditionalEv # -- Begin function _ZNK4llvm10BranchInst13isConditionalEv
	.p2align	4, 0x90
	.type	_ZNK4llvm10BranchInst13isConditionalEv,@function
_ZNK4llvm10BranchInst13isConditionalEv: # @_ZNK4llvm10BranchInst13isConditionalEv
	.cfi_startproc
# %bb.0:
	pushq	%rbp
	.cfi_def_cfa_offset 16
	.cfi_offset %rbp, -16
	movq	%rsp, %rbp
	.cfi_def_cfa_register %rbp
	subq	$16, %rsp
	movq	%rdi, -8(%rbp)
	movq	-8(%rbp), %rdi
	callq	_ZNK4llvm10BranchInst14getNumOperandsEv
	cmpl	$3, %eax
	sete	%cl
	andb	$1, %cl
	movzbl	%cl, %eax
	addq	$16, %rsp
	popq	%rbp
	.cfi_def_cfa %rsp, 8
	retq
.Lfunc_end36:
	.size	_ZNK4llvm10BranchInst13isConditionalEv, .Lfunc_end36-_ZNK4llvm10BranchInst13isConditionalEv
	.cfi_endproc
                                        # -- End function
	.section	.text._ZNK4llvm10BranchInst15isUnconditionalEv,"axG",@progbits,_ZNK4llvm10BranchInst15isUnconditionalEv,comdat
	.weak	_ZNK4llvm10BranchInst15isUnconditionalEv # -- Begin function _ZNK4llvm10BranchInst15isUnconditionalEv
	.p2align	4, 0x90
	.type	_ZNK4llvm10BranchInst15isUnconditionalEv,@function
_ZNK4llvm10BranchInst15isUnconditionalEv: # @_ZNK4llvm10BranchInst15isUnconditionalEv
	.cfi_startproc
# %bb.0:
	pushq	%rbp
	.cfi_def_cfa_offset 16
	.cfi_offset %rbp, -16
	movq	%rsp, %rbp
	.cfi_def_cfa_register %rbp
	subq	$16, %rsp
	movq	%rdi, -8(%rbp)
	movq	-8(%rbp), %rdi
	callq	_ZNK4llvm10BranchInst14getNumOperandsEv
	cmpl	$1, %eax
	sete	%cl
	andb	$1, %cl
	movzbl	%cl, %eax
	addq	$16, %rsp
	popq	%rbp
	.cfi_def_cfa %rsp, 8
	retq
.Lfunc_end37:
	.size	_ZNK4llvm10BranchInst15isUnconditionalEv, .Lfunc_end37-_ZNK4llvm10BranchInst15isUnconditionalEv
	.cfi_endproc
                                        # -- End function
	.section	.text._ZN4llvm8dyn_castINS_10SwitchInstENS_11InstructionEEENS_10cast_rettyIT_PT0_E8ret_typeES6_,"axG",@progbits,_ZN4llvm8dyn_castINS_10SwitchInstENS_11InstructionEEENS_10cast_rettyIT_PT0_E8ret_typeES6_,comdat
	.weak	_ZN4llvm8dyn_castINS_10SwitchInstENS_11InstructionEEENS_10cast_rettyIT_PT0_E8ret_typeES6_ # -- Begin function _ZN4llvm8dyn_castINS_10SwitchInstENS_11InstructionEEENS_10cast_rettyIT_PT0_E8ret_typeES6_
	.p2align	4, 0x90
	.type	_ZN4llvm8dyn_castINS_10SwitchInstENS_11InstructionEEENS_10cast_rettyIT_PT0_E8ret_typeES6_,@function
_ZN4llvm8dyn_castINS_10SwitchInstENS_11InstructionEEENS_10cast_rettyIT_PT0_E8ret_typeES6_: # @_ZN4llvm8dyn_castINS_10SwitchInstENS_11InstructionEEENS_10cast_rettyIT_PT0_E8ret_typeES6_
	.cfi_startproc
# %bb.0:
	pushq	%rbp
	.cfi_def_cfa_offset 16
	.cfi_offset %rbp, -16
	movq	%rsp, %rbp
	.cfi_def_cfa_register %rbp
	subq	$16, %rsp
	movq	%rdi, -8(%rbp)
	leaq	-8(%rbp), %rdi
	callq	_ZN4llvm3isaINS_10SwitchInstEPNS_11InstructionEEEbRKT0_
	testb	$1, %al
	jne	.LBB38_1
	jmp	.LBB38_2
.LBB38_1:
	movq	-8(%rbp), %rdi
	callq	_ZN4llvm4castINS_10SwitchInstENS_11InstructionEEENS_10cast_rettyIT_PT0_E8ret_typeES6_
	movq	%rax, -16(%rbp)         # 8-byte Spill
	jmp	.LBB38_3
.LBB38_2:
	xorl	%eax, %eax
	movl	%eax, %ecx
	movq	%rcx, -16(%rbp)         # 8-byte Spill
	jmp	.LBB38_3
.LBB38_3:
	movq	-16(%rbp), %rax         # 8-byte Reload
	addq	$16, %rsp
	popq	%rbp
	.cfi_def_cfa %rsp, 8
	retq
.Lfunc_end38:
	.size	_ZN4llvm8dyn_castINS_10SwitchInstENS_11InstructionEEENS_10cast_rettyIT_PT0_E8ret_typeES6_, .Lfunc_end38-_ZN4llvm8dyn_castINS_10SwitchInstENS_11InstructionEEENS_10cast_rettyIT_PT0_E8ret_typeES6_
	.cfi_endproc
                                        # -- End function
	.section	.text._ZN4llvm8dyn_castINS_8CallInstENS_11InstructionEEENS_10cast_rettyIT_PT0_E8ret_typeES6_,"axG",@progbits,_ZN4llvm8dyn_castINS_8CallInstENS_11InstructionEEENS_10cast_rettyIT_PT0_E8ret_typeES6_,comdat
	.weak	_ZN4llvm8dyn_castINS_8CallInstENS_11InstructionEEENS_10cast_rettyIT_PT0_E8ret_typeES6_ # -- Begin function _ZN4llvm8dyn_castINS_8CallInstENS_11InstructionEEENS_10cast_rettyIT_PT0_E8ret_typeES6_
	.p2align	4, 0x90
	.type	_ZN4llvm8dyn_castINS_8CallInstENS_11InstructionEEENS_10cast_rettyIT_PT0_E8ret_typeES6_,@function
_ZN4llvm8dyn_castINS_8CallInstENS_11InstructionEEENS_10cast_rettyIT_PT0_E8ret_typeES6_: # @_ZN4llvm8dyn_castINS_8CallInstENS_11InstructionEEENS_10cast_rettyIT_PT0_E8ret_typeES6_
	.cfi_startproc
# %bb.0:
	pushq	%rbp
	.cfi_def_cfa_offset 16
	.cfi_offset %rbp, -16
	movq	%rsp, %rbp
	.cfi_def_cfa_register %rbp
	subq	$16, %rsp
	movq	%rdi, -8(%rbp)
	leaq	-8(%rbp), %rdi
	callq	_ZN4llvm3isaINS_8CallInstEPNS_11InstructionEEEbRKT0_
	testb	$1, %al
	jne	.LBB39_1
	jmp	.LBB39_2
.LBB39_1:
	movq	-8(%rbp), %rdi
	callq	_ZN4llvm4castINS_8CallInstENS_11InstructionEEENS_10cast_rettyIT_PT0_E8ret_typeES6_
	movq	%rax, -16(%rbp)         # 8-byte Spill
	jmp	.LBB39_3
.LBB39_2:
	xorl	%eax, %eax
	movl	%eax, %ecx
	movq	%rcx, -16(%rbp)         # 8-byte Spill
	jmp	.LBB39_3
.LBB39_3:
	movq	-16(%rbp), %rax         # 8-byte Reload
	addq	$16, %rsp
	popq	%rbp
	.cfi_def_cfa %rsp, 8
	retq
.Lfunc_end39:
	.size	_ZN4llvm8dyn_castINS_8CallInstENS_11InstructionEEENS_10cast_rettyIT_PT0_E8ret_typeES6_, .Lfunc_end39-_ZN4llvm8dyn_castINS_8CallInstENS_11InstructionEEENS_10cast_rettyIT_PT0_E8ret_typeES6_
	.cfi_endproc
                                        # -- End function
	.section	.text._ZNK4llvm8CallBase17getCalledFunctionEv,"axG",@progbits,_ZNK4llvm8CallBase17getCalledFunctionEv,comdat
	.weak	_ZNK4llvm8CallBase17getCalledFunctionEv # -- Begin function _ZNK4llvm8CallBase17getCalledFunctionEv
	.p2align	4, 0x90
	.type	_ZNK4llvm8CallBase17getCalledFunctionEv,@function
_ZNK4llvm8CallBase17getCalledFunctionEv: # @_ZNK4llvm8CallBase17getCalledFunctionEv
	.cfi_startproc
# %bb.0:
	pushq	%rbp
	.cfi_def_cfa_offset 16
	.cfi_offset %rbp, -16
	movq	%rsp, %rbp
	.cfi_def_cfa_register %rbp
	subq	$16, %rsp
	movq	%rdi, -8(%rbp)
	movq	-8(%rbp), %rdi
	callq	_ZNK4llvm8CallBase16getCalledOperandEv
	movq	%rax, %rdi
	callq	_ZN4llvm16dyn_cast_or_nullINS_8FunctionENS_5ValueEEENS_10cast_rettyIT_PT0_E8ret_typeES6_
	addq	$16, %rsp
	popq	%rbp
	.cfi_def_cfa %rsp, 8
	retq
.Lfunc_end40:
	.size	_ZNK4llvm8CallBase17getCalledFunctionEv, .Lfunc_end40-_ZNK4llvm8CallBase17getCalledFunctionEv
	.cfi_endproc
                                        # -- End function
	.section	.text._ZNK4llvm4Type11isIntegerTyEv,"axG",@progbits,_ZNK4llvm4Type11isIntegerTyEv,comdat
	.weak	_ZNK4llvm4Type11isIntegerTyEv # -- Begin function _ZNK4llvm4Type11isIntegerTyEv
	.p2align	4, 0x90
	.type	_ZNK4llvm4Type11isIntegerTyEv,@function
_ZNK4llvm4Type11isIntegerTyEv:          # @_ZNK4llvm4Type11isIntegerTyEv
	.cfi_startproc
# %bb.0:
	pushq	%rbp
	.cfi_def_cfa_offset 16
	.cfi_offset %rbp, -16
	movq	%rsp, %rbp
	.cfi_def_cfa_register %rbp
	subq	$16, %rsp
	movq	%rdi, -8(%rbp)
	movq	-8(%rbp), %rdi
	callq	_ZNK4llvm4Type9getTypeIDEv
	cmpl	$11, %eax
	sete	%cl
	andb	$1, %cl
	movzbl	%cl, %eax
	addq	$16, %rsp
	popq	%rbp
	.cfi_def_cfa %rsp, 8
	retq
.Lfunc_end41:
	.size	_ZNK4llvm4Type11isIntegerTyEv, .Lfunc_end41-_ZNK4llvm4Type11isIntegerTyEv
	.cfi_endproc
                                        # -- End function
	.section	.text._ZNK4llvm8CallBase17getNumArgOperandsEv,"axG",@progbits,_ZNK4llvm8CallBase17getNumArgOperandsEv,comdat
	.weak	_ZNK4llvm8CallBase17getNumArgOperandsEv # -- Begin function _ZNK4llvm8CallBase17getNumArgOperandsEv
	.p2align	4, 0x90
	.type	_ZNK4llvm8CallBase17getNumArgOperandsEv,@function
_ZNK4llvm8CallBase17getNumArgOperandsEv: # @_ZNK4llvm8CallBase17getNumArgOperandsEv
	.cfi_startproc
# %bb.0:
	pushq	%rbp
	.cfi_def_cfa_offset 16
	.cfi_offset %rbp, -16
	movq	%rsp, %rbp
	.cfi_def_cfa_register %rbp
	subq	$16, %rsp
	movq	%rdi, -8(%rbp)
	movq	-8(%rbp), %rdi
	callq	_ZNK4llvm8CallBase8arg_sizeEv
	addq	$16, %rsp
	popq	%rbp
	.cfi_def_cfa %rsp, 8
	retq
.Lfunc_end42:
	.size	_ZNK4llvm8CallBase17getNumArgOperandsEv, .Lfunc_end42-_ZNK4llvm8CallBase17getNumArgOperandsEv
	.cfi_endproc
                                        # -- End function
	.section	.text._ZNK4llvm8CallBase13getArgOperandEj,"axG",@progbits,_ZNK4llvm8CallBase13getArgOperandEj,comdat
	.weak	_ZNK4llvm8CallBase13getArgOperandEj # -- Begin function _ZNK4llvm8CallBase13getArgOperandEj
	.p2align	4, 0x90
	.type	_ZNK4llvm8CallBase13getArgOperandEj,@function
_ZNK4llvm8CallBase13getArgOperandEj:    # @_ZNK4llvm8CallBase13getArgOperandEj
	.cfi_startproc
# %bb.0:
	pushq	%rbp
	.cfi_def_cfa_offset 16
	.cfi_offset %rbp, -16
	movq	%rsp, %rbp
	.cfi_def_cfa_register %rbp
	subq	$32, %rsp
	movq	%rdi, -8(%rbp)
	movl	%esi, -12(%rbp)
	movq	-8(%rbp), %rax
	movl	-12(%rbp), %ecx
	movq	%rax, %rdi
	movq	%rax, -24(%rbp)         # 8-byte Spill
	movl	%ecx, -28(%rbp)         # 4-byte Spill
	callq	_ZNK4llvm8CallBase17getNumArgOperandsEv
	xorl	%ecx, %ecx
                                        # kill: def $cl killed $cl killed $ecx
	movl	-28(%rbp), %edx         # 4-byte Reload
	cmpl	%eax, %edx
	movb	%cl, -29(%rbp)          # 1-byte Spill
	jae	.LBB43_2
# %bb.1:
	movb	$1, %al
	movb	%al, -29(%rbp)          # 1-byte Spill
	jmp	.LBB43_2
.LBB43_2:
	movb	-29(%rbp), %al          # 1-byte Reload
	testb	$1, %al
	jne	.LBB43_3
	jmp	.LBB43_4
.LBB43_3:
	jmp	.LBB43_5
.LBB43_4:
	movabsq	$.L.str.78, %rdi
	movabsq	$.L.str.72, %rsi
	movl	$1247, %edx             # imm = 0x4DF
	movabsq	$.L__PRETTY_FUNCTION__._ZNK4llvm8CallBase13getArgOperandEj, %rcx
	callq	__assert_fail
.LBB43_5:
	movl	-12(%rbp), %esi
	movq	-24(%rbp), %rdi         # 8-byte Reload
	callq	_ZNK4llvm8CallBase10getOperandEj
	addq	$32, %rsp
	popq	%rbp
	.cfi_def_cfa %rsp, 8
	retq
.Lfunc_end43:
	.size	_ZNK4llvm8CallBase13getArgOperandEj, .Lfunc_end43-_ZNK4llvm8CallBase13getArgOperandEj
	.cfi_endproc
                                        # -- End function
	.section	.text._ZN4llvm8dyn_castINS_10InvokeInstENS_11InstructionEEENS_10cast_rettyIT_PT0_E8ret_typeES6_,"axG",@progbits,_ZN4llvm8dyn_castINS_10InvokeInstENS_11InstructionEEENS_10cast_rettyIT_PT0_E8ret_typeES6_,comdat
	.weak	_ZN4llvm8dyn_castINS_10InvokeInstENS_11InstructionEEENS_10cast_rettyIT_PT0_E8ret_typeES6_ # -- Begin function _ZN4llvm8dyn_castINS_10InvokeInstENS_11InstructionEEENS_10cast_rettyIT_PT0_E8ret_typeES6_
	.p2align	4, 0x90
	.type	_ZN4llvm8dyn_castINS_10InvokeInstENS_11InstructionEEENS_10cast_rettyIT_PT0_E8ret_typeES6_,@function
_ZN4llvm8dyn_castINS_10InvokeInstENS_11InstructionEEENS_10cast_rettyIT_PT0_E8ret_typeES6_: # @_ZN4llvm8dyn_castINS_10InvokeInstENS_11InstructionEEENS_10cast_rettyIT_PT0_E8ret_typeES6_
	.cfi_startproc
# %bb.0:
	pushq	%rbp
	.cfi_def_cfa_offset 16
	.cfi_offset %rbp, -16
	movq	%rsp, %rbp
	.cfi_def_cfa_register %rbp
	subq	$16, %rsp
	movq	%rdi, -8(%rbp)
	leaq	-8(%rbp), %rdi
	callq	_ZN4llvm3isaINS_10InvokeInstEPNS_11InstructionEEEbRKT0_
	testb	$1, %al
	jne	.LBB44_1
	jmp	.LBB44_2
.LBB44_1:
	movq	-8(%rbp), %rdi
	callq	_ZN4llvm4castINS_10InvokeInstENS_11InstructionEEENS_10cast_rettyIT_PT0_E8ret_typeES6_
	movq	%rax, -16(%rbp)         # 8-byte Spill
	jmp	.LBB44_3
.LBB44_2:
	xorl	%eax, %eax
	movl	%eax, %ecx
	movq	%rcx, -16(%rbp)         # 8-byte Spill
	jmp	.LBB44_3
.LBB44_3:
	movq	-16(%rbp), %rax         # 8-byte Reload
	addq	$16, %rsp
	popq	%rbp
	.cfi_def_cfa %rsp, 8
	retq
.Lfunc_end44:
	.size	_ZN4llvm8dyn_castINS_10InvokeInstENS_11InstructionEEENS_10cast_rettyIT_PT0_E8ret_typeES6_, .Lfunc_end44-_ZN4llvm8dyn_castINS_10InvokeInstENS_11InstructionEEENS_10cast_rettyIT_PT0_E8ret_typeES6_
	.cfi_endproc
                                        # -- End function
	.section	.text._ZN4llvm8dyn_castINS_13UnaryOperatorENS_11InstructionEEENS_10cast_rettyIT_PT0_E8ret_typeES6_,"axG",@progbits,_ZN4llvm8dyn_castINS_13UnaryOperatorENS_11InstructionEEENS_10cast_rettyIT_PT0_E8ret_typeES6_,comdat
	.weak	_ZN4llvm8dyn_castINS_13UnaryOperatorENS_11InstructionEEENS_10cast_rettyIT_PT0_E8ret_typeES6_ # -- Begin function _ZN4llvm8dyn_castINS_13UnaryOperatorENS_11InstructionEEENS_10cast_rettyIT_PT0_E8ret_typeES6_
	.p2align	4, 0x90
	.type	_ZN4llvm8dyn_castINS_13UnaryOperatorENS_11InstructionEEENS_10cast_rettyIT_PT0_E8ret_typeES6_,@function
_ZN4llvm8dyn_castINS_13UnaryOperatorENS_11InstructionEEENS_10cast_rettyIT_PT0_E8ret_typeES6_: # @_ZN4llvm8dyn_castINS_13UnaryOperatorENS_11InstructionEEENS_10cast_rettyIT_PT0_E8ret_typeES6_
	.cfi_startproc
# %bb.0:
	pushq	%rbp
	.cfi_def_cfa_offset 16
	.cfi_offset %rbp, -16
	movq	%rsp, %rbp
	.cfi_def_cfa_register %rbp
	subq	$16, %rsp
	movq	%rdi, -8(%rbp)
	leaq	-8(%rbp), %rdi
	callq	_ZN4llvm3isaINS_13UnaryOperatorEPNS_11InstructionEEEbRKT0_
	testb	$1, %al
	jne	.LBB45_1
	jmp	.LBB45_2
.LBB45_1:
	movq	-8(%rbp), %rdi
	callq	_ZN4llvm4castINS_13UnaryOperatorENS_11InstructionEEENS_10cast_rettyIT_PT0_E8ret_typeES6_
	movq	%rax, -16(%rbp)         # 8-byte Spill
	jmp	.LBB45_3
.LBB45_2:
	xorl	%eax, %eax
	movl	%eax, %ecx
	movq	%rcx, -16(%rbp)         # 8-byte Spill
	jmp	.LBB45_3
.LBB45_3:
	movq	-16(%rbp), %rax         # 8-byte Reload
	addq	$16, %rsp
	popq	%rbp
	.cfi_def_cfa %rsp, 8
	retq
.Lfunc_end45:
	.size	_ZN4llvm8dyn_castINS_13UnaryOperatorENS_11InstructionEEENS_10cast_rettyIT_PT0_E8ret_typeES6_, .Lfunc_end45-_ZN4llvm8dyn_castINS_13UnaryOperatorENS_11InstructionEEENS_10cast_rettyIT_PT0_E8ret_typeES6_
	.cfi_endproc
                                        # -- End function
	.section	.text._ZN4llvm8dyn_castINS_14BinaryOperatorENS_11InstructionEEENS_10cast_rettyIT_PT0_E8ret_typeES6_,"axG",@progbits,_ZN4llvm8dyn_castINS_14BinaryOperatorENS_11InstructionEEENS_10cast_rettyIT_PT0_E8ret_typeES6_,comdat
	.weak	_ZN4llvm8dyn_castINS_14BinaryOperatorENS_11InstructionEEENS_10cast_rettyIT_PT0_E8ret_typeES6_ # -- Begin function _ZN4llvm8dyn_castINS_14BinaryOperatorENS_11InstructionEEENS_10cast_rettyIT_PT0_E8ret_typeES6_
	.p2align	4, 0x90
	.type	_ZN4llvm8dyn_castINS_14BinaryOperatorENS_11InstructionEEENS_10cast_rettyIT_PT0_E8ret_typeES6_,@function
_ZN4llvm8dyn_castINS_14BinaryOperatorENS_11InstructionEEENS_10cast_rettyIT_PT0_E8ret_typeES6_: # @_ZN4llvm8dyn_castINS_14BinaryOperatorENS_11InstructionEEENS_10cast_rettyIT_PT0_E8ret_typeES6_
	.cfi_startproc
# %bb.0:
	pushq	%rbp
	.cfi_def_cfa_offset 16
	.cfi_offset %rbp, -16
	movq	%rsp, %rbp
	.cfi_def_cfa_register %rbp
	subq	$16, %rsp
	movq	%rdi, -8(%rbp)
	leaq	-8(%rbp), %rdi
	callq	_ZN4llvm3isaINS_14BinaryOperatorEPNS_11InstructionEEEbRKT0_
	testb	$1, %al
	jne	.LBB46_1
	jmp	.LBB46_2
.LBB46_1:
	movq	-8(%rbp), %rdi
	callq	_ZN4llvm4castINS_14BinaryOperatorENS_11InstructionEEENS_10cast_rettyIT_PT0_E8ret_typeES6_
	movq	%rax, -16(%rbp)         # 8-byte Spill
	jmp	.LBB46_3
.LBB46_2:
	xorl	%eax, %eax
	movl	%eax, %ecx
	movq	%rcx, -16(%rbp)         # 8-byte Spill
	jmp	.LBB46_3
.LBB46_3:
	movq	-16(%rbp), %rax         # 8-byte Reload
	addq	$16, %rsp
	popq	%rbp
	.cfi_def_cfa %rsp, 8
	retq
.Lfunc_end46:
	.size	_ZN4llvm8dyn_castINS_14BinaryOperatorENS_11InstructionEEENS_10cast_rettyIT_PT0_E8ret_typeES6_, .Lfunc_end46-_ZN4llvm8dyn_castINS_14BinaryOperatorENS_11InstructionEEENS_10cast_rettyIT_PT0_E8ret_typeES6_
	.cfi_endproc
                                        # -- End function
	.section	.text._ZNK4llvm14BinaryOperator10getOperandEj,"axG",@progbits,_ZNK4llvm14BinaryOperator10getOperandEj,comdat
	.weak	_ZNK4llvm14BinaryOperator10getOperandEj # -- Begin function _ZNK4llvm14BinaryOperator10getOperandEj
	.p2align	4, 0x90
	.type	_ZNK4llvm14BinaryOperator10getOperandEj,@function
_ZNK4llvm14BinaryOperator10getOperandEj: # @_ZNK4llvm14BinaryOperator10getOperandEj
	.cfi_startproc
# %bb.0:
	pushq	%rbp
	.cfi_def_cfa_offset 16
	.cfi_offset %rbp, -16
	movq	%rsp, %rbp
	.cfi_def_cfa_register %rbp
	subq	$32, %rsp
	movq	%rdi, -8(%rbp)
	movl	%esi, -12(%rbp)
	movq	-8(%rbp), %rax
	movl	-12(%rbp), %ecx
	movq	%rax, %rdx
	movq	%rdx, %rdi
	movq	%rax, -24(%rbp)         # 8-byte Spill
	movl	%ecx, -28(%rbp)         # 4-byte Spill
	callq	_ZN4llvm21FixedNumOperandTraitsINS_14BinaryOperatorELj2EE8operandsEPKNS_4UserE
	xorl	%ecx, %ecx
                                        # kill: def $cl killed $cl killed $ecx
	movl	-28(%rbp), %esi         # 4-byte Reload
	cmpl	%eax, %esi
	movb	%cl, -29(%rbp)          # 1-byte Spill
	jae	.LBB47_2
# %bb.1:
	movb	$1, %al
	movb	%al, -29(%rbp)          # 1-byte Spill
	jmp	.LBB47_2
.LBB47_2:
	movb	-29(%rbp), %al          # 1-byte Reload
	testb	$1, %al
	jne	.LBB47_3
	jmp	.LBB47_4
.LBB47_3:
	jmp	.LBB47_5
.LBB47_4:
	movabsq	$.L.str.82, %rdi
	movabsq	$.L.str.72, %rsi
	movl	$427, %edx              # imm = 0x1AB
	movabsq	$.L__PRETTY_FUNCTION__._ZNK4llvm14BinaryOperator10getOperandEj, %rcx
	callq	__assert_fail
.LBB47_5:
	movq	-24(%rbp), %rdi         # 8-byte Reload
	callq	_ZN4llvm21FixedNumOperandTraitsINS_14BinaryOperatorELj2EE8op_beginEPS1_
	movl	-12(%rbp), %ecx
	movl	%ecx, %edx
	imulq	$24, %rdx, %rdx
	addq	%rdx, %rax
	movq	%rax, %rdi
	callq	_ZNK4llvm3Use3getEv
	movq	%rax, %rdi
	callq	_ZN4llvm12cast_or_nullINS_5ValueES1_EENS_10cast_rettyIT_PT0_E8ret_typeES5_
	addq	$32, %rsp
	popq	%rbp
	.cfi_def_cfa %rsp, 8
	retq
.Lfunc_end47:
	.size	_ZNK4llvm14BinaryOperator10getOperandEj, .Lfunc_end47-_ZNK4llvm14BinaryOperator10getOperandEj
	.cfi_endproc
                                        # -- End function
	.section	.text._ZNK4llvm4Type17isFloatingPointTyEv,"axG",@progbits,_ZNK4llvm4Type17isFloatingPointTyEv,comdat
	.weak	_ZNK4llvm4Type17isFloatingPointTyEv # -- Begin function _ZNK4llvm4Type17isFloatingPointTyEv
	.p2align	4, 0x90
	.type	_ZNK4llvm4Type17isFloatingPointTyEv,@function
_ZNK4llvm4Type17isFloatingPointTyEv:    # @_ZNK4llvm4Type17isFloatingPointTyEv
	.cfi_startproc
# %bb.0:
	pushq	%rbp
	.cfi_def_cfa_offset 16
	.cfi_offset %rbp, -16
	movq	%rsp, %rbp
	.cfi_def_cfa_register %rbp
	subq	$32, %rsp
	movq	%rdi, -8(%rbp)
	movq	-8(%rbp), %rax
	movq	%rax, %rdi
	movq	%rax, -16(%rbp)         # 8-byte Spill
	callq	_ZNK4llvm4Type9getTypeIDEv
	cmpl	$1, %eax
	movb	$1, %cl
	movb	%cl, -17(%rbp)          # 1-byte Spill
	je	.LBB48_6
# %bb.1:
	movq	-16(%rbp), %rdi         # 8-byte Reload
	callq	_ZNK4llvm4Type9getTypeIDEv
	cmpl	$2, %eax
	movb	$1, %cl
	movb	%cl, -17(%rbp)          # 1-byte Spill
	je	.LBB48_6
# %bb.2:
	movq	-16(%rbp), %rdi         # 8-byte Reload
	callq	_ZNK4llvm4Type9getTypeIDEv
	cmpl	$3, %eax
	movb	$1, %cl
	movb	%cl, -17(%rbp)          # 1-byte Spill
	je	.LBB48_6
# %bb.3:
	movq	-16(%rbp), %rdi         # 8-byte Reload
	callq	_ZNK4llvm4Type9getTypeIDEv
	cmpl	$4, %eax
	movb	$1, %cl
	movb	%cl, -17(%rbp)          # 1-byte Spill
	je	.LBB48_6
# %bb.4:
	movq	-16(%rbp), %rdi         # 8-byte Reload
	callq	_ZNK4llvm4Type9getTypeIDEv
	cmpl	$5, %eax
	movb	$1, %cl
	movb	%cl, -17(%rbp)          # 1-byte Spill
	je	.LBB48_6
# %bb.5:
	movq	-16(%rbp), %rdi         # 8-byte Reload
	callq	_ZNK4llvm4Type9getTypeIDEv
	cmpl	$6, %eax
	sete	%cl
	movb	%cl, -17(%rbp)          # 1-byte Spill
.LBB48_6:
	movb	-17(%rbp), %al          # 1-byte Reload
	andb	$1, %al
	movzbl	%al, %eax
	addq	$32, %rsp
	popq	%rbp
	.cfi_def_cfa %rsp, 8
	retq
.Lfunc_end48:
	.size	_ZNK4llvm4Type17isFloatingPointTyEv, .Lfunc_end48-_ZNK4llvm4Type17isFloatingPointTyEv
	.cfi_endproc
                                        # -- End function
	.section	.text._ZN4llvm3isaINS_11ConstantIntEPNS_5ValueEEEbRKT0_,"axG",@progbits,_ZN4llvm3isaINS_11ConstantIntEPNS_5ValueEEEbRKT0_,comdat
	.weak	_ZN4llvm3isaINS_11ConstantIntEPNS_5ValueEEEbRKT0_ # -- Begin function _ZN4llvm3isaINS_11ConstantIntEPNS_5ValueEEEbRKT0_
	.p2align	4, 0x90
	.type	_ZN4llvm3isaINS_11ConstantIntEPNS_5ValueEEEbRKT0_,@function
_ZN4llvm3isaINS_11ConstantIntEPNS_5ValueEEEbRKT0_: # @_ZN4llvm3isaINS_11ConstantIntEPNS_5ValueEEEbRKT0_
	.cfi_startproc
# %bb.0:
	pushq	%rbp
	.cfi_def_cfa_offset 16
	.cfi_offset %rbp, -16
	movq	%rsp, %rbp
	.cfi_def_cfa_register %rbp
	subq	$16, %rsp
	movq	%rdi, -8(%rbp)
	movq	-8(%rbp), %rdi
	callq	_ZN4llvm13isa_impl_wrapINS_11ConstantIntEKPNS_5ValueEPKS2_E4doitERS4_
	andb	$1, %al
	movzbl	%al, %eax
	addq	$16, %rsp
	popq	%rbp
	.cfi_def_cfa %rsp, 8
	retq
.Lfunc_end49:
	.size	_ZN4llvm3isaINS_11ConstantIntEPNS_5ValueEEEbRKT0_, .Lfunc_end49-_ZN4llvm3isaINS_11ConstantIntEPNS_5ValueEEEbRKT0_
	.cfi_endproc
                                        # -- End function
	.section	.text._ZN4llvm3isaINS_7PHINodeEPNS_11InstructionEEEbRKT0_,"axG",@progbits,_ZN4llvm3isaINS_7PHINodeEPNS_11InstructionEEEbRKT0_,comdat
	.weak	_ZN4llvm3isaINS_7PHINodeEPNS_11InstructionEEEbRKT0_ # -- Begin function _ZN4llvm3isaINS_7PHINodeEPNS_11InstructionEEEbRKT0_
	.p2align	4, 0x90
	.type	_ZN4llvm3isaINS_7PHINodeEPNS_11InstructionEEEbRKT0_,@function
_ZN4llvm3isaINS_7PHINodeEPNS_11InstructionEEEbRKT0_: # @_ZN4llvm3isaINS_7PHINodeEPNS_11InstructionEEEbRKT0_
	.cfi_startproc
# %bb.0:
	pushq	%rbp
	.cfi_def_cfa_offset 16
	.cfi_offset %rbp, -16
	movq	%rsp, %rbp
	.cfi_def_cfa_register %rbp
	subq	$16, %rsp
	movq	%rdi, -8(%rbp)
	movq	-8(%rbp), %rdi
	callq	_ZN4llvm13isa_impl_wrapINS_7PHINodeEKPNS_11InstructionEPKS2_E4doitERS4_
	andb	$1, %al
	movzbl	%al, %eax
	addq	$16, %rsp
	popq	%rbp
	.cfi_def_cfa %rsp, 8
	retq
.Lfunc_end50:
	.size	_ZN4llvm3isaINS_7PHINodeEPNS_11InstructionEEEbRKT0_, .Lfunc_end50-_ZN4llvm3isaINS_7PHINodeEPNS_11InstructionEEEbRKT0_
	.cfi_endproc
                                        # -- End function
	.section	.text._ZNK4llvm4Type8isVoidTyEv,"axG",@progbits,_ZNK4llvm4Type8isVoidTyEv,comdat
	.weak	_ZNK4llvm4Type8isVoidTyEv # -- Begin function _ZNK4llvm4Type8isVoidTyEv
	.p2align	4, 0x90
	.type	_ZNK4llvm4Type8isVoidTyEv,@function
_ZNK4llvm4Type8isVoidTyEv:              # @_ZNK4llvm4Type8isVoidTyEv
	.cfi_startproc
# %bb.0:
	pushq	%rbp
	.cfi_def_cfa_offset 16
	.cfi_offset %rbp, -16
	movq	%rsp, %rbp
	.cfi_def_cfa_register %rbp
	subq	$16, %rsp
	movq	%rdi, -8(%rbp)
	movq	-8(%rbp), %rdi
	callq	_ZNK4llvm4Type9getTypeIDEv
	cmpl	$0, %eax
	sete	%cl
	andb	$1, %cl
	movzbl	%cl, %eax
	addq	$16, %rsp
	popq	%rbp
	.cfi_def_cfa %rsp, 8
	retq
.Lfunc_end51:
	.size	_ZNK4llvm4Type8isVoidTyEv, .Lfunc_end51-_ZNK4llvm4Type8isVoidTyEv
	.cfi_endproc
                                        # -- End function
	.section	.text._ZN4llvm8dyn_castINS_11ConstantIntENS_5ValueEEENS_10cast_rettyIT_PT0_E8ret_typeES6_,"axG",@progbits,_ZN4llvm8dyn_castINS_11ConstantIntENS_5ValueEEENS_10cast_rettyIT_PT0_E8ret_typeES6_,comdat
	.weak	_ZN4llvm8dyn_castINS_11ConstantIntENS_5ValueEEENS_10cast_rettyIT_PT0_E8ret_typeES6_ # -- Begin function _ZN4llvm8dyn_castINS_11ConstantIntENS_5ValueEEENS_10cast_rettyIT_PT0_E8ret_typeES6_
	.p2align	4, 0x90
	.type	_ZN4llvm8dyn_castINS_11ConstantIntENS_5ValueEEENS_10cast_rettyIT_PT0_E8ret_typeES6_,@function
_ZN4llvm8dyn_castINS_11ConstantIntENS_5ValueEEENS_10cast_rettyIT_PT0_E8ret_typeES6_: # @_ZN4llvm8dyn_castINS_11ConstantIntENS_5ValueEEENS_10cast_rettyIT_PT0_E8ret_typeES6_
	.cfi_startproc
# %bb.0:
	pushq	%rbp
	.cfi_def_cfa_offset 16
	.cfi_offset %rbp, -16
	movq	%rsp, %rbp
	.cfi_def_cfa_register %rbp
	subq	$16, %rsp
	movq	%rdi, -8(%rbp)
	leaq	-8(%rbp), %rdi
	callq	_ZN4llvm3isaINS_11ConstantIntEPNS_5ValueEEEbRKT0_
	testb	$1, %al
	jne	.LBB52_1
	jmp	.LBB52_2
.LBB52_1:
	movq	-8(%rbp), %rdi
	callq	_ZN4llvm4castINS_11ConstantIntENS_5ValueEEENS_10cast_rettyIT_PT0_E8ret_typeES6_
	movq	%rax, -16(%rbp)         # 8-byte Spill
	jmp	.LBB52_3
.LBB52_2:
	xorl	%eax, %eax
	movl	%eax, %ecx
	movq	%rcx, -16(%rbp)         # 8-byte Spill
	jmp	.LBB52_3
.LBB52_3:
	movq	-16(%rbp), %rax         # 8-byte Reload
	addq	$16, %rsp
	popq	%rbp
	.cfi_def_cfa %rsp, 8
	retq
.Lfunc_end52:
	.size	_ZN4llvm8dyn_castINS_11ConstantIntENS_5ValueEEENS_10cast_rettyIT_PT0_E8ret_typeES6_, .Lfunc_end52-_ZN4llvm8dyn_castINS_11ConstantIntENS_5ValueEEENS_10cast_rettyIT_PT0_E8ret_typeES6_
	.cfi_endproc
                                        # -- End function
	.section	.text._ZN4llvm3isaINS_10AllocaInstEPNS_11InstructionEEEbRKT0_,"axG",@progbits,_ZN4llvm3isaINS_10AllocaInstEPNS_11InstructionEEEbRKT0_,comdat
	.weak	_ZN4llvm3isaINS_10AllocaInstEPNS_11InstructionEEEbRKT0_ # -- Begin function _ZN4llvm3isaINS_10AllocaInstEPNS_11InstructionEEEbRKT0_
	.p2align	4, 0x90
	.type	_ZN4llvm3isaINS_10AllocaInstEPNS_11InstructionEEEbRKT0_,@function
_ZN4llvm3isaINS_10AllocaInstEPNS_11InstructionEEEbRKT0_: # @_ZN4llvm3isaINS_10AllocaInstEPNS_11InstructionEEEbRKT0_
	.cfi_startproc
# %bb.0:
	pushq	%rbp
	.cfi_def_cfa_offset 16
	.cfi_offset %rbp, -16
	movq	%rsp, %rbp
	.cfi_def_cfa_register %rbp
	subq	$16, %rsp
	movq	%rdi, -8(%rbp)
	movq	-8(%rbp), %rdi
	callq	_ZN4llvm13isa_impl_wrapINS_10AllocaInstEKPNS_11InstructionEPKS2_E4doitERS4_
	andb	$1, %al
	movzbl	%al, %eax
	addq	$16, %rsp
	popq	%rbp
	.cfi_def_cfa %rsp, 8
	retq
.Lfunc_end53:
	.size	_ZN4llvm3isaINS_10AllocaInstEPNS_11InstructionEEEbRKT0_, .Lfunc_end53-_ZN4llvm3isaINS_10AllocaInstEPNS_11InstructionEEEbRKT0_
	.cfi_endproc
                                        # -- End function
	.section	.text._ZN4llvm4User8operandsEv,"axG",@progbits,_ZN4llvm4User8operandsEv,comdat
	.weak	_ZN4llvm4User8operandsEv # -- Begin function _ZN4llvm4User8operandsEv
	.p2align	4, 0x90
	.type	_ZN4llvm4User8operandsEv,@function
_ZN4llvm4User8operandsEv:               # @_ZN4llvm4User8operandsEv
	.cfi_startproc
# %bb.0:
	pushq	%rbp
	.cfi_def_cfa_offset 16
	.cfi_offset %rbp, -16
	movq	%rsp, %rbp
	.cfi_def_cfa_register %rbp
	subq	$48, %rsp
	movq	%rdi, -24(%rbp)
	movq	-24(%rbp), %rax
	movq	%rax, %rdi
	movq	%rax, -32(%rbp)         # 8-byte Spill
	callq	_ZN4llvm4User8op_beginEv
	movq	-32(%rbp), %rdi         # 8-byte Reload
	movq	%rax, -40(%rbp)         # 8-byte Spill
	callq	_ZN4llvm4User6op_endEv
	leaq	-16(%rbp), %rdi
	movq	-40(%rbp), %rsi         # 8-byte Reload
	movq	%rax, %rdx
	callq	_ZN4llvm14iterator_rangeIPNS_3UseEEC2ES2_S2_
	movq	-16(%rbp), %rax
	movq	-8(%rbp), %rdx
	addq	$48, %rsp
	popq	%rbp
	.cfi_def_cfa %rsp, 8
	retq
.Lfunc_end54:
	.size	_ZN4llvm4User8operandsEv, .Lfunc_end54-_ZN4llvm4User8operandsEv
	.cfi_endproc
                                        # -- End function
	.section	.text._ZNK4llvm14iterator_rangeIPNS_3UseEE5beginEv,"axG",@progbits,_ZNK4llvm14iterator_rangeIPNS_3UseEE5beginEv,comdat
	.weak	_ZNK4llvm14iterator_rangeIPNS_3UseEE5beginEv # -- Begin function _ZNK4llvm14iterator_rangeIPNS_3UseEE5beginEv
	.p2align	4, 0x90
	.type	_ZNK4llvm14iterator_rangeIPNS_3UseEE5beginEv,@function
_ZNK4llvm14iterator_rangeIPNS_3UseEE5beginEv: # @_ZNK4llvm14iterator_rangeIPNS_3UseEE5beginEv
	.cfi_startproc
# %bb.0:
	pushq	%rbp
	.cfi_def_cfa_offset 16
	.cfi_offset %rbp, -16
	movq	%rsp, %rbp
	.cfi_def_cfa_register %rbp
	movq	%rdi, -8(%rbp)
	movq	-8(%rbp), %rax
	movq	(%rax), %rax
	popq	%rbp
	.cfi_def_cfa %rsp, 8
	retq
.Lfunc_end55:
	.size	_ZNK4llvm14iterator_rangeIPNS_3UseEE5beginEv, .Lfunc_end55-_ZNK4llvm14iterator_rangeIPNS_3UseEE5beginEv
	.cfi_endproc
                                        # -- End function
	.section	.text._ZNK4llvm14iterator_rangeIPNS_3UseEE3endEv,"axG",@progbits,_ZNK4llvm14iterator_rangeIPNS_3UseEE3endEv,comdat
	.weak	_ZNK4llvm14iterator_rangeIPNS_3UseEE3endEv # -- Begin function _ZNK4llvm14iterator_rangeIPNS_3UseEE3endEv
	.p2align	4, 0x90
	.type	_ZNK4llvm14iterator_rangeIPNS_3UseEE3endEv,@function
_ZNK4llvm14iterator_rangeIPNS_3UseEE3endEv: # @_ZNK4llvm14iterator_rangeIPNS_3UseEE3endEv
	.cfi_startproc
# %bb.0:
	pushq	%rbp
	.cfi_def_cfa_offset 16
	.cfi_offset %rbp, -16
	movq	%rsp, %rbp
	.cfi_def_cfa_register %rbp
	movq	%rdi, -8(%rbp)
	movq	-8(%rbp), %rax
	movq	8(%rax), %rax
	popq	%rbp
	.cfi_def_cfa %rsp, 8
	retq
.Lfunc_end56:
	.size	_ZNK4llvm14iterator_rangeIPNS_3UseEE3endEv, .Lfunc_end56-_ZNK4llvm14iterator_rangeIPNS_3UseEE3endEv
	.cfi_endproc
                                        # -- End function
	.section	.text._ZN4llvm3isaINS_11InstructionENS_3UseEEEbRKT0_,"axG",@progbits,_ZN4llvm3isaINS_11InstructionENS_3UseEEEbRKT0_,comdat
	.weak	_ZN4llvm3isaINS_11InstructionENS_3UseEEEbRKT0_ # -- Begin function _ZN4llvm3isaINS_11InstructionENS_3UseEEEbRKT0_
	.p2align	4, 0x90
	.type	_ZN4llvm3isaINS_11InstructionENS_3UseEEEbRKT0_,@function
_ZN4llvm3isaINS_11InstructionENS_3UseEEEbRKT0_: # @_ZN4llvm3isaINS_11InstructionENS_3UseEEEbRKT0_
	.cfi_startproc
# %bb.0:
	pushq	%rbp
	.cfi_def_cfa_offset 16
	.cfi_offset %rbp, -16
	movq	%rsp, %rbp
	.cfi_def_cfa_register %rbp
	subq	$16, %rsp
	movq	%rdi, -8(%rbp)
	movq	-8(%rbp), %rdi
	callq	_ZN4llvm13isa_impl_wrapINS_11InstructionEKNS_3UseEPNS_5ValueEE4doitERS3_
	andb	$1, %al
	movzbl	%al, %eax
	addq	$16, %rsp
	popq	%rbp
	.cfi_def_cfa %rsp, 8
	retq
.Lfunc_end57:
	.size	_ZN4llvm3isaINS_11InstructionENS_3UseEEEbRKT0_, .Lfunc_end57-_ZN4llvm3isaINS_11InstructionENS_3UseEEEbRKT0_
	.cfi_endproc
                                        # -- End function
	.section	.text._ZNSt3setIPN4llvm5ValueESt4lessIS2_ESaIS2_EE6insertEOS2_,"axG",@progbits,_ZNSt3setIPN4llvm5ValueESt4lessIS2_ESaIS2_EE6insertEOS2_,comdat
	.weak	_ZNSt3setIPN4llvm5ValueESt4lessIS2_ESaIS2_EE6insertEOS2_ # -- Begin function _ZNSt3setIPN4llvm5ValueESt4lessIS2_ESaIS2_EE6insertEOS2_
	.p2align	4, 0x90
	.type	_ZNSt3setIPN4llvm5ValueESt4lessIS2_ESaIS2_EE6insertEOS2_,@function
_ZNSt3setIPN4llvm5ValueESt4lessIS2_ESaIS2_EE6insertEOS2_: # @_ZNSt3setIPN4llvm5ValueESt4lessIS2_ESaIS2_EE6insertEOS2_
	.cfi_startproc
# %bb.0:
	pushq	%rbp
	.cfi_def_cfa_offset 16
	.cfi_offset %rbp, -16
	movq	%rsp, %rbp
	.cfi_def_cfa_register %rbp
	subq	$64, %rsp
	movq	%rdi, -24(%rbp)
	movq	%rsi, -32(%rbp)
	movq	-24(%rbp), %rdi
	movq	-32(%rbp), %rax
	movq	%rdi, -56(%rbp)         # 8-byte Spill
	movq	%rax, %rdi
	callq	_ZSt4moveIRPN4llvm5ValueEEONSt16remove_referenceIT_E4typeEOS5_
	movq	-56(%rbp), %rdi         # 8-byte Reload
	movq	%rax, %rsi
	callq	_ZNSt8_Rb_treeIPN4llvm5ValueES2_St9_IdentityIS2_ESt4lessIS2_ESaIS2_EE16_M_insert_uniqueIS2_EESt4pairISt17_Rb_tree_iteratorIS2_EbEOT_
	movq	%rax, -48(%rbp)
	leaq	-40(%rbp), %rax
	movb	%dl, -40(%rbp)
	leaq	-16(%rbp), %rdi
	leaq	-48(%rbp), %rsi
	movq	%rax, %rdx
	callq	_ZNSt4pairISt23_Rb_tree_const_iteratorIPN4llvm5ValueEEbEC2IRSt17_Rb_tree_iteratorIS3_ERbLb1EEEOT_OT0_
	movq	-16(%rbp), %rax
	movb	-8(%rbp), %dl
	addq	$64, %rsp
	popq	%rbp
	.cfi_def_cfa %rsp, 8
	retq
.Lfunc_end58:
	.size	_ZNSt3setIPN4llvm5ValueESt4lessIS2_ESaIS2_EE6insertEOS2_, .Lfunc_end58-_ZNSt3setIPN4llvm5ValueESt4lessIS2_ESaIS2_EE6insertEOS2_
	.cfi_endproc
                                        # -- End function
	.section	.text._ZNK4llvm3UsecvPNS_5ValueEEv,"axG",@progbits,_ZNK4llvm3UsecvPNS_5ValueEEv,comdat
	.weak	_ZNK4llvm3UsecvPNS_5ValueEEv # -- Begin function _ZNK4llvm3UsecvPNS_5ValueEEv
	.p2align	4, 0x90
	.type	_ZNK4llvm3UsecvPNS_5ValueEEv,@function
_ZNK4llvm3UsecvPNS_5ValueEEv:           # @_ZNK4llvm3UsecvPNS_5ValueEEv
	.cfi_startproc
# %bb.0:
	pushq	%rbp
	.cfi_def_cfa_offset 16
	.cfi_offset %rbp, -16
	movq	%rsp, %rbp
	.cfi_def_cfa_register %rbp
	movq	%rdi, -8(%rbp)
	movq	-8(%rbp), %rax
	movq	(%rax), %rax
	popq	%rbp
	.cfi_def_cfa %rsp, 8
	retq
.Lfunc_end59:
	.size	_ZNK4llvm3UsecvPNS_5ValueEEv, .Lfunc_end59-_ZNK4llvm3UsecvPNS_5ValueEEv
	.cfi_endproc
                                        # -- End function
	.section	.text._ZN4llvm8dyn_castINS_11ConstantIntENS_3UseEEENS_10cast_rettyIT_T0_E8ret_typeERS5_,"axG",@progbits,_ZN4llvm8dyn_castINS_11ConstantIntENS_3UseEEENS_10cast_rettyIT_T0_E8ret_typeERS5_,comdat
	.weak	_ZN4llvm8dyn_castINS_11ConstantIntENS_3UseEEENS_10cast_rettyIT_T0_E8ret_typeERS5_ # -- Begin function _ZN4llvm8dyn_castINS_11ConstantIntENS_3UseEEENS_10cast_rettyIT_T0_E8ret_typeERS5_
	.p2align	4, 0x90
	.type	_ZN4llvm8dyn_castINS_11ConstantIntENS_3UseEEENS_10cast_rettyIT_T0_E8ret_typeERS5_,@function
_ZN4llvm8dyn_castINS_11ConstantIntENS_3UseEEENS_10cast_rettyIT_T0_E8ret_typeERS5_: # @_ZN4llvm8dyn_castINS_11ConstantIntENS_3UseEEENS_10cast_rettyIT_T0_E8ret_typeERS5_
	.cfi_startproc
# %bb.0:
	pushq	%rbp
	.cfi_def_cfa_offset 16
	.cfi_offset %rbp, -16
	movq	%rsp, %rbp
	.cfi_def_cfa_register %rbp
	subq	$16, %rsp
	movq	%rdi, -8(%rbp)
	movq	-8(%rbp), %rdi
	callq	_ZN4llvm3isaINS_11ConstantIntENS_3UseEEEbRKT0_
	testb	$1, %al
	jne	.LBB60_1
	jmp	.LBB60_2
.LBB60_1:
	movq	-8(%rbp), %rdi
	callq	_ZN4llvm4castINS_11ConstantIntENS_3UseEEENS_10cast_rettyIT_T0_E8ret_typeERS5_
	movq	%rax, -16(%rbp)         # 8-byte Spill
	jmp	.LBB60_3
.LBB60_2:
	xorl	%eax, %eax
	movl	%eax, %ecx
	movq	%rcx, -16(%rbp)         # 8-byte Spill
	jmp	.LBB60_3
.LBB60_3:
	movq	-16(%rbp), %rax         # 8-byte Reload
	addq	$16, %rsp
	popq	%rbp
	.cfi_def_cfa %rsp, 8
	retq
.Lfunc_end60:
	.size	_ZN4llvm8dyn_castINS_11ConstantIntENS_3UseEEENS_10cast_rettyIT_T0_E8ret_typeERS5_, .Lfunc_end60-_ZN4llvm8dyn_castINS_11ConstantIntENS_3UseEEENS_10cast_rettyIT_T0_E8ret_typeERS5_
	.cfi_endproc
                                        # -- End function
	.section	.text._ZNK4llvm11ConstantInt7getTypeEv,"axG",@progbits,_ZNK4llvm11ConstantInt7getTypeEv,comdat
	.weak	_ZNK4llvm11ConstantInt7getTypeEv # -- Begin function _ZNK4llvm11ConstantInt7getTypeEv
	.p2align	4, 0x90
	.type	_ZNK4llvm11ConstantInt7getTypeEv,@function
_ZNK4llvm11ConstantInt7getTypeEv:       # @_ZNK4llvm11ConstantInt7getTypeEv
	.cfi_startproc
# %bb.0:
	pushq	%rbp
	.cfi_def_cfa_offset 16
	.cfi_offset %rbp, -16
	movq	%rsp, %rbp
	.cfi_def_cfa_register %rbp
	subq	$16, %rsp
	movq	%rdi, -8(%rbp)
	movq	-8(%rbp), %rax
	movq	%rax, %rdi
	callq	_ZNK4llvm5Value7getTypeEv
	movq	%rax, %rdi
	callq	_ZN4llvm4castINS_11IntegerTypeENS_4TypeEEENS_10cast_rettyIT_PT0_E8ret_typeES6_
	addq	$16, %rsp
	popq	%rbp
	.cfi_def_cfa %rsp, 8
	retq
.Lfunc_end61:
	.size	_ZNK4llvm11ConstantInt7getTypeEv, .Lfunc_end61-_ZNK4llvm11ConstantInt7getTypeEv
	.cfi_endproc
                                        # -- End function
	.section	.text._ZNK4llvm11ConstantInt12getSExtValueEv,"axG",@progbits,_ZNK4llvm11ConstantInt12getSExtValueEv,comdat
	.weak	_ZNK4llvm11ConstantInt12getSExtValueEv # -- Begin function _ZNK4llvm11ConstantInt12getSExtValueEv
	.p2align	4, 0x90
	.type	_ZNK4llvm11ConstantInt12getSExtValueEv,@function
_ZNK4llvm11ConstantInt12getSExtValueEv: # @_ZNK4llvm11ConstantInt12getSExtValueEv
	.cfi_startproc
# %bb.0:
	pushq	%rbp
	.cfi_def_cfa_offset 16
	.cfi_offset %rbp, -16
	movq	%rsp, %rbp
	.cfi_def_cfa_register %rbp
	subq	$16, %rsp
	movq	%rdi, -8(%rbp)
	movq	-8(%rbp), %rax
	addq	$24, %rax
	movq	%rax, %rdi
	callq	_ZNK4llvm5APInt12getSExtValueEv
	addq	$16, %rsp
	popq	%rbp
	.cfi_def_cfa %rsp, 8
	retq
.Lfunc_end62:
	.size	_ZNK4llvm11ConstantInt12getSExtValueEv, .Lfunc_end62-_ZNK4llvm11ConstantInt12getSExtValueEv
	.cfi_endproc
                                        # -- End function
	.section	.text._ZN4llvm8dyn_castINS_14GlobalVariableENS_3UseEEENS_10cast_rettyIT_T0_E8ret_typeERS5_,"axG",@progbits,_ZN4llvm8dyn_castINS_14GlobalVariableENS_3UseEEENS_10cast_rettyIT_T0_E8ret_typeERS5_,comdat
	.weak	_ZN4llvm8dyn_castINS_14GlobalVariableENS_3UseEEENS_10cast_rettyIT_T0_E8ret_typeERS5_ # -- Begin function _ZN4llvm8dyn_castINS_14GlobalVariableENS_3UseEEENS_10cast_rettyIT_T0_E8ret_typeERS5_
	.p2align	4, 0x90
	.type	_ZN4llvm8dyn_castINS_14GlobalVariableENS_3UseEEENS_10cast_rettyIT_T0_E8ret_typeERS5_,@function
_ZN4llvm8dyn_castINS_14GlobalVariableENS_3UseEEENS_10cast_rettyIT_T0_E8ret_typeERS5_: # @_ZN4llvm8dyn_castINS_14GlobalVariableENS_3UseEEENS_10cast_rettyIT_T0_E8ret_typeERS5_
	.cfi_startproc
# %bb.0:
	pushq	%rbp
	.cfi_def_cfa_offset 16
	.cfi_offset %rbp, -16
	movq	%rsp, %rbp
	.cfi_def_cfa_register %rbp
	subq	$16, %rsp
	movq	%rdi, -8(%rbp)
	movq	-8(%rbp), %rdi
	callq	_ZN4llvm3isaINS_14GlobalVariableENS_3UseEEEbRKT0_
	testb	$1, %al
	jne	.LBB63_1
	jmp	.LBB63_2
.LBB63_1:
	movq	-8(%rbp), %rdi
	callq	_ZN4llvm4castINS_14GlobalVariableENS_3UseEEENS_10cast_rettyIT_T0_E8ret_typeERS5_
	movq	%rax, -16(%rbp)         # 8-byte Spill
	jmp	.LBB63_3
.LBB63_2:
	xorl	%eax, %eax
	movl	%eax, %ecx
	movq	%rcx, -16(%rbp)         # 8-byte Spill
	jmp	.LBB63_3
.LBB63_3:
	movq	-16(%rbp), %rax         # 8-byte Reload
	addq	$16, %rsp
	popq	%rbp
	.cfi_def_cfa %rsp, 8
	retq
.Lfunc_end63:
	.size	_ZN4llvm8dyn_castINS_14GlobalVariableENS_3UseEEENS_10cast_rettyIT_T0_E8ret_typeERS5_, .Lfunc_end63-_ZN4llvm8dyn_castINS_14GlobalVariableENS_3UseEEENS_10cast_rettyIT_T0_E8ret_typeERS5_
	.cfi_endproc
                                        # -- End function
	.section	.text._ZNSt3setIPN4llvm14GlobalVariableESt4lessIS2_ESaIS2_EE6insertERKS2_,"axG",@progbits,_ZNSt3setIPN4llvm14GlobalVariableESt4lessIS2_ESaIS2_EE6insertERKS2_,comdat
	.weak	_ZNSt3setIPN4llvm14GlobalVariableESt4lessIS2_ESaIS2_EE6insertERKS2_ # -- Begin function _ZNSt3setIPN4llvm14GlobalVariableESt4lessIS2_ESaIS2_EE6insertERKS2_
	.p2align	4, 0x90
	.type	_ZNSt3setIPN4llvm14GlobalVariableESt4lessIS2_ESaIS2_EE6insertERKS2_,@function
_ZNSt3setIPN4llvm14GlobalVariableESt4lessIS2_ESaIS2_EE6insertERKS2_: # @_ZNSt3setIPN4llvm14GlobalVariableESt4lessIS2_ESaIS2_EE6insertERKS2_
	.cfi_startproc
# %bb.0:
	pushq	%rbp
	.cfi_def_cfa_offset 16
	.cfi_offset %rbp, -16
	movq	%rsp, %rbp
	.cfi_def_cfa_register %rbp
	subq	$48, %rsp
	movq	%rdi, -24(%rbp)
	movq	%rsi, -32(%rbp)
	movq	-24(%rbp), %rdi
	movq	-32(%rbp), %rsi
	callq	_ZNSt8_Rb_treeIPN4llvm14GlobalVariableES2_St9_IdentityIS2_ESt4lessIS2_ESaIS2_EE16_M_insert_uniqueIRKS2_EESt4pairISt17_Rb_tree_iteratorIS2_EbEOT_
	movq	%rax, -48(%rbp)
	leaq	-40(%rbp), %rax
	movb	%dl, -40(%rbp)
	leaq	-16(%rbp), %rdi
	leaq	-48(%rbp), %rsi
	movq	%rax, %rdx
	callq	_ZNSt4pairISt23_Rb_tree_const_iteratorIPN4llvm14GlobalVariableEEbEC2IRSt17_Rb_tree_iteratorIS3_ERbLb1EEEOT_OT0_
	movq	-16(%rbp), %rax
	movb	-8(%rbp), %dl
	addq	$48, %rsp
	popq	%rbp
	.cfi_def_cfa %rsp, 8
	retq
.Lfunc_end64:
	.size	_ZNSt3setIPN4llvm14GlobalVariableESt4lessIS2_ESaIS2_EE6insertERKS2_, .Lfunc_end64-_ZNSt3setIPN4llvm14GlobalVariableESt4lessIS2_ESaIS2_EE6insertERKS2_
	.cfi_endproc
                                        # -- End function
	.section	.text._ZNK4llvm14GlobalVariable14getNumOperandsEv,"axG",@progbits,_ZNK4llvm14GlobalVariable14getNumOperandsEv,comdat
	.weak	_ZNK4llvm14GlobalVariable14getNumOperandsEv # -- Begin function _ZNK4llvm14GlobalVariable14getNumOperandsEv
	.p2align	4, 0x90
	.type	_ZNK4llvm14GlobalVariable14getNumOperandsEv,@function
_ZNK4llvm14GlobalVariable14getNumOperandsEv: # @_ZNK4llvm14GlobalVariable14getNumOperandsEv
	.cfi_startproc
# %bb.0:
	pushq	%rbp
	.cfi_def_cfa_offset 16
	.cfi_offset %rbp, -16
	movq	%rsp, %rbp
	.cfi_def_cfa_register %rbp
	subq	$16, %rsp
	movq	%rdi, -8(%rbp)
	movq	-8(%rbp), %rax
	movq	%rax, %rdi
	callq	_ZN4llvm21OptionalOperandTraitsINS_14GlobalVariableELj1EE8operandsEPKNS_4UserE
	addq	$16, %rsp
	popq	%rbp
	.cfi_def_cfa %rsp, 8
	retq
.Lfunc_end65:
	.size	_ZNK4llvm14GlobalVariable14getNumOperandsEv, .Lfunc_end65-_ZNK4llvm14GlobalVariable14getNumOperandsEv
	.cfi_endproc
                                        # -- End function
	.section	.text._ZNK4llvm14GlobalVariable10getOperandEj,"axG",@progbits,_ZNK4llvm14GlobalVariable10getOperandEj,comdat
	.weak	_ZNK4llvm14GlobalVariable10getOperandEj # -- Begin function _ZNK4llvm14GlobalVariable10getOperandEj
	.p2align	4, 0x90
	.type	_ZNK4llvm14GlobalVariable10getOperandEj,@function
_ZNK4llvm14GlobalVariable10getOperandEj: # @_ZNK4llvm14GlobalVariable10getOperandEj
	.cfi_startproc
# %bb.0:
	pushq	%rbp
	.cfi_def_cfa_offset 16
	.cfi_offset %rbp, -16
	movq	%rsp, %rbp
	.cfi_def_cfa_register %rbp
	subq	$32, %rsp
	movq	%rdi, -8(%rbp)
	movl	%esi, -12(%rbp)
	movq	-8(%rbp), %rax
	movl	-12(%rbp), %ecx
	movq	%rax, %rdx
	movq	%rdx, %rdi
	movq	%rax, -24(%rbp)         # 8-byte Spill
	movl	%ecx, -28(%rbp)         # 4-byte Spill
	callq	_ZN4llvm21OptionalOperandTraitsINS_14GlobalVariableELj1EE8operandsEPKNS_4UserE
	xorl	%ecx, %ecx
                                        # kill: def $cl killed $cl killed $ecx
	movl	-28(%rbp), %esi         # 4-byte Reload
	cmpl	%eax, %esi
	movb	%cl, -29(%rbp)          # 1-byte Spill
	jae	.LBB66_2
# %bb.1:
	movb	$1, %al
	movb	%al, -29(%rbp)          # 1-byte Spill
	jmp	.LBB66_2
.LBB66_2:
	movb	-29(%rbp), %al          # 1-byte Reload
	testb	$1, %al
	jne	.LBB66_3
	jmp	.LBB66_4
.LBB66_3:
	jmp	.LBB66_5
.LBB66_4:
	movabsq	$.L.str.93, %rdi
	movabsq	$.L.str.94, %rsi
	movl	$261, %edx              # imm = 0x105
	movabsq	$.L__PRETTY_FUNCTION__._ZNK4llvm14GlobalVariable10getOperandEj, %rcx
	callq	__assert_fail
.LBB66_5:
	movq	-24(%rbp), %rdi         # 8-byte Reload
	callq	_ZN4llvm21FixedNumOperandTraitsINS_14GlobalVariableELj1EE8op_beginEPS1_
	movl	-12(%rbp), %ecx
	movl	%ecx, %edx
	imulq	$24, %rdx, %rdx
	addq	%rdx, %rax
	movq	%rax, %rdi
	callq	_ZNK4llvm3Use3getEv
	movq	%rax, %rdi
	callq	_ZN4llvm12cast_or_nullINS_5ValueES1_EENS_10cast_rettyIT_PT0_E8ret_typeES5_
	addq	$32, %rsp
	popq	%rbp
	.cfi_def_cfa %rsp, 8
	retq
.Lfunc_end66:
	.size	_ZNK4llvm14GlobalVariable10getOperandEj, .Lfunc_end66-_ZNK4llvm14GlobalVariable10getOperandEj
	.cfi_endproc
                                        # -- End function
	.section	.text._ZN4llvm8dyn_castINS_11GEPOperatorENS_11InstructionEEENS_10cast_rettyIT_PT0_E8ret_typeES6_,"axG",@progbits,_ZN4llvm8dyn_castINS_11GEPOperatorENS_11InstructionEEENS_10cast_rettyIT_PT0_E8ret_typeES6_,comdat
	.weak	_ZN4llvm8dyn_castINS_11GEPOperatorENS_11InstructionEEENS_10cast_rettyIT_PT0_E8ret_typeES6_ # -- Begin function _ZN4llvm8dyn_castINS_11GEPOperatorENS_11InstructionEEENS_10cast_rettyIT_PT0_E8ret_typeES6_
	.p2align	4, 0x90
	.type	_ZN4llvm8dyn_castINS_11GEPOperatorENS_11InstructionEEENS_10cast_rettyIT_PT0_E8ret_typeES6_,@function
_ZN4llvm8dyn_castINS_11GEPOperatorENS_11InstructionEEENS_10cast_rettyIT_PT0_E8ret_typeES6_: # @_ZN4llvm8dyn_castINS_11GEPOperatorENS_11InstructionEEENS_10cast_rettyIT_PT0_E8ret_typeES6_
	.cfi_startproc
# %bb.0:
	pushq	%rbp
	.cfi_def_cfa_offset 16
	.cfi_offset %rbp, -16
	movq	%rsp, %rbp
	.cfi_def_cfa_register %rbp
	subq	$16, %rsp
	movq	%rdi, -8(%rbp)
	leaq	-8(%rbp), %rdi
	callq	_ZN4llvm3isaINS_11GEPOperatorEPNS_11InstructionEEEbRKT0_
	testb	$1, %al
	jne	.LBB67_1
	jmp	.LBB67_2
.LBB67_1:
	movq	-8(%rbp), %rdi
	callq	_ZN4llvm4castINS_11GEPOperatorENS_11InstructionEEENS_10cast_rettyIT_PT0_E8ret_typeES6_
	movq	%rax, -16(%rbp)         # 8-byte Spill
	jmp	.LBB67_3
.LBB67_2:
	xorl	%eax, %eax
	movl	%eax, %ecx
	movq	%rcx, -16(%rbp)         # 8-byte Spill
	jmp	.LBB67_3
.LBB67_3:
	movq	-16(%rbp), %rax         # 8-byte Reload
	addq	$16, %rsp
	popq	%rbp
	.cfi_def_cfa %rsp, 8
	retq
.Lfunc_end67:
	.size	_ZN4llvm8dyn_castINS_11GEPOperatorENS_11InstructionEEENS_10cast_rettyIT_PT0_E8ret_typeES6_, .Lfunc_end67-_ZN4llvm8dyn_castINS_11GEPOperatorENS_11InstructionEEENS_10cast_rettyIT_PT0_E8ret_typeES6_
	.cfi_endproc
                                        # -- End function
	.section	.text._ZN4llvm11GEPOperator9idx_beginEv,"axG",@progbits,_ZN4llvm11GEPOperator9idx_beginEv,comdat
	.weak	_ZN4llvm11GEPOperator9idx_beginEv # -- Begin function _ZN4llvm11GEPOperator9idx_beginEv
	.p2align	4, 0x90
	.type	_ZN4llvm11GEPOperator9idx_beginEv,@function
_ZN4llvm11GEPOperator9idx_beginEv:      # @_ZN4llvm11GEPOperator9idx_beginEv
	.cfi_startproc
# %bb.0:
	pushq	%rbp
	.cfi_def_cfa_offset 16
	.cfi_offset %rbp, -16
	movq	%rsp, %rbp
	.cfi_def_cfa_register %rbp
	subq	$16, %rsp
	movq	%rdi, -8(%rbp)
	movq	-8(%rbp), %rax
	movq	%rax, %rdi
	callq	_ZN4llvm4User8op_beginEv
	addq	$24, %rax
	addq	$16, %rsp
	popq	%rbp
	.cfi_def_cfa %rsp, 8
	retq
.Lfunc_end68:
	.size	_ZN4llvm11GEPOperator9idx_beginEv, .Lfunc_end68-_ZN4llvm11GEPOperator9idx_beginEv
	.cfi_endproc
                                        # -- End function
	.section	.text._ZN4llvm11GEPOperator7idx_endEv,"axG",@progbits,_ZN4llvm11GEPOperator7idx_endEv,comdat
	.weak	_ZN4llvm11GEPOperator7idx_endEv # -- Begin function _ZN4llvm11GEPOperator7idx_endEv
	.p2align	4, 0x90
	.type	_ZN4llvm11GEPOperator7idx_endEv,@function
_ZN4llvm11GEPOperator7idx_endEv:        # @_ZN4llvm11GEPOperator7idx_endEv
	.cfi_startproc
# %bb.0:
	pushq	%rbp
	.cfi_def_cfa_offset 16
	.cfi_offset %rbp, -16
	movq	%rsp, %rbp
	.cfi_def_cfa_register %rbp
	subq	$16, %rsp
	movq	%rdi, -8(%rbp)
	movq	-8(%rbp), %rax
	movq	%rax, %rdi
	callq	_ZN4llvm4User6op_endEv
	addq	$16, %rsp
	popq	%rbp
	.cfi_def_cfa %rsp, 8
	retq
.Lfunc_end69:
	.size	_ZN4llvm11GEPOperator7idx_endEv, .Lfunc_end69-_ZN4llvm11GEPOperator7idx_endEv
	.cfi_endproc
                                        # -- End function
	.section	.text._ZN4llvm14ilist_iteratorINS_12ilist_detail12node_optionsINS_11InstructionELb0ELb0EvEELb0ELb0EEppEv,"axG",@progbits,_ZN4llvm14ilist_iteratorINS_12ilist_detail12node_optionsINS_11InstructionELb0ELb0EvEELb0ELb0EEppEv,comdat
	.weak	_ZN4llvm14ilist_iteratorINS_12ilist_detail12node_optionsINS_11InstructionELb0ELb0EvEELb0ELb0EEppEv # -- Begin function _ZN4llvm14ilist_iteratorINS_12ilist_detail12node_optionsINS_11InstructionELb0ELb0EvEELb0ELb0EEppEv
	.p2align	4, 0x90
	.type	_ZN4llvm14ilist_iteratorINS_12ilist_detail12node_optionsINS_11InstructionELb0ELb0EvEELb0ELb0EEppEv,@function
_ZN4llvm14ilist_iteratorINS_12ilist_detail12node_optionsINS_11InstructionELb0ELb0EvEELb0ELb0EEppEv: # @_ZN4llvm14ilist_iteratorINS_12ilist_detail12node_optionsINS_11InstructionELb0ELb0EvEELb0ELb0EEppEv
	.cfi_startproc
# %bb.0:
	pushq	%rbp
	.cfi_def_cfa_offset 16
	.cfi_offset %rbp, -16
	movq	%rsp, %rbp
	.cfi_def_cfa_register %rbp
	subq	$16, %rsp
	movq	%rdi, -8(%rbp)
	movq	-8(%rbp), %rax
	movq	(%rax), %rdi
	movq	%rax, -16(%rbp)         # 8-byte Spill
	callq	_ZN4llvm15ilist_node_implINS_12ilist_detail12node_optionsINS_11InstructionELb0ELb0EvEEE7getNextEv
	movq	-16(%rbp), %rcx         # 8-byte Reload
	movq	%rax, (%rcx)
	movq	%rcx, %rax
	addq	$16, %rsp
	popq	%rbp
	.cfi_def_cfa %rsp, 8
	retq
.Lfunc_end70:
	.size	_ZN4llvm14ilist_iteratorINS_12ilist_detail12node_optionsINS_11InstructionELb0ELb0EvEELb0ELb0EEppEv, .Lfunc_end70-_ZN4llvm14ilist_iteratorINS_12ilist_detail12node_optionsINS_11InstructionELb0ELb0EvEELb0ELb0EEppEv
	.cfi_endproc
                                        # -- End function
	.section	.text._ZNK4llvm10BasicBlock4sizeEv,"axG",@progbits,_ZNK4llvm10BasicBlock4sizeEv,comdat
	.weak	_ZNK4llvm10BasicBlock4sizeEv # -- Begin function _ZNK4llvm10BasicBlock4sizeEv
	.p2align	4, 0x90
	.type	_ZNK4llvm10BasicBlock4sizeEv,@function
_ZNK4llvm10BasicBlock4sizeEv:           # @_ZNK4llvm10BasicBlock4sizeEv
	.cfi_startproc
# %bb.0:
	pushq	%rbp
	.cfi_def_cfa_offset 16
	.cfi_offset %rbp, -16
	movq	%rsp, %rbp
	.cfi_def_cfa_register %rbp
	subq	$16, %rsp
	movq	%rdi, -8(%rbp)
	movq	-8(%rbp), %rax
	addq	$40, %rax
	movq	%rax, %rdi
	callq	_ZNK4llvm12simple_ilistINS_11InstructionEJEE4sizeEv
	addq	$16, %rsp
	popq	%rbp
	.cfi_def_cfa %rsp, 8
	retq
.Lfunc_end71:
	.size	_ZNK4llvm10BasicBlock4sizeEv, .Lfunc_end71-_ZNK4llvm10BasicBlock4sizeEv
	.cfi_endproc
                                        # -- End function
	.section	.text._ZN4llvm14ilist_iteratorINS_12ilist_detail12node_optionsINS_10BasicBlockELb0ELb0EvEELb0ELb0EEppEv,"axG",@progbits,_ZN4llvm14ilist_iteratorINS_12ilist_detail12node_optionsINS_10BasicBlockELb0ELb0EvEELb0ELb0EEppEv,comdat
	.weak	_ZN4llvm14ilist_iteratorINS_12ilist_detail12node_optionsINS_10BasicBlockELb0ELb0EvEELb0ELb0EEppEv # -- Begin function _ZN4llvm14ilist_iteratorINS_12ilist_detail12node_optionsINS_10BasicBlockELb0ELb0EvEELb0ELb0EEppEv
	.p2align	4, 0x90
	.type	_ZN4llvm14ilist_iteratorINS_12ilist_detail12node_optionsINS_10BasicBlockELb0ELb0EvEELb0ELb0EEppEv,@function
_ZN4llvm14ilist_iteratorINS_12ilist_detail12node_optionsINS_10BasicBlockELb0ELb0EvEELb0ELb0EEppEv: # @_ZN4llvm14ilist_iteratorINS_12ilist_detail12node_optionsINS_10BasicBlockELb0ELb0EvEELb0ELb0EEppEv
	.cfi_startproc
# %bb.0:
	pushq	%rbp
	.cfi_def_cfa_offset 16
	.cfi_offset %rbp, -16
	movq	%rsp, %rbp
	.cfi_def_cfa_register %rbp
	subq	$16, %rsp
	movq	%rdi, -8(%rbp)
	movq	-8(%rbp), %rax
	movq	(%rax), %rdi
	movq	%rax, -16(%rbp)         # 8-byte Spill
	callq	_ZN4llvm15ilist_node_implINS_12ilist_detail12node_optionsINS_10BasicBlockELb0ELb0EvEEE7getNextEv
	movq	-16(%rbp), %rcx         # 8-byte Reload
	movq	%rax, (%rcx)
	movq	%rcx, %rax
	addq	$16, %rsp
	popq	%rbp
	.cfi_def_cfa %rsp, 8
	retq
.Lfunc_end72:
	.size	_ZN4llvm14ilist_iteratorINS_12ilist_detail12node_optionsINS_10BasicBlockELb0ELb0EvEELb0ELb0EEppEv, .Lfunc_end72-_ZN4llvm14ilist_iteratorINS_12ilist_detail12node_optionsINS_10BasicBlockELb0ELb0EvEELb0ELb0EEppEv
	.cfi_endproc
                                        # -- End function
	.section	.text._ZNKSt3setIPN4llvm5ValueESt4lessIS2_ESaIS2_EE4sizeEv,"axG",@progbits,_ZNKSt3setIPN4llvm5ValueESt4lessIS2_ESaIS2_EE4sizeEv,comdat
	.weak	_ZNKSt3setIPN4llvm5ValueESt4lessIS2_ESaIS2_EE4sizeEv # -- Begin function _ZNKSt3setIPN4llvm5ValueESt4lessIS2_ESaIS2_EE4sizeEv
	.p2align	4, 0x90
	.type	_ZNKSt3setIPN4llvm5ValueESt4lessIS2_ESaIS2_EE4sizeEv,@function
_ZNKSt3setIPN4llvm5ValueESt4lessIS2_ESaIS2_EE4sizeEv: # @_ZNKSt3setIPN4llvm5ValueESt4lessIS2_ESaIS2_EE4sizeEv
	.cfi_startproc
# %bb.0:
	pushq	%rbp
	.cfi_def_cfa_offset 16
	.cfi_offset %rbp, -16
	movq	%rsp, %rbp
	.cfi_def_cfa_register %rbp
	subq	$16, %rsp
	movq	%rdi, -8(%rbp)
	movq	-8(%rbp), %rdi
	callq	_ZNKSt8_Rb_treeIPN4llvm5ValueES2_St9_IdentityIS2_ESt4lessIS2_ESaIS2_EE4sizeEv
	addq	$16, %rsp
	popq	%rbp
	.cfi_def_cfa %rsp, 8
	retq
.Lfunc_end73:
	.size	_ZNKSt3setIPN4llvm5ValueESt4lessIS2_ESaIS2_EE4sizeEv, .Lfunc_end73-_ZNKSt3setIPN4llvm5ValueESt4lessIS2_ESaIS2_EE4sizeEv
	.cfi_endproc
                                        # -- End function
	.section	.text._ZNKSt3setIPN4llvm14GlobalVariableESt4lessIS2_ESaIS2_EE4sizeEv,"axG",@progbits,_ZNKSt3setIPN4llvm14GlobalVariableESt4lessIS2_ESaIS2_EE4sizeEv,comdat
	.weak	_ZNKSt3setIPN4llvm14GlobalVariableESt4lessIS2_ESaIS2_EE4sizeEv # -- Begin function _ZNKSt3setIPN4llvm14GlobalVariableESt4lessIS2_ESaIS2_EE4sizeEv
	.p2align	4, 0x90
	.type	_ZNKSt3setIPN4llvm14GlobalVariableESt4lessIS2_ESaIS2_EE4sizeEv,@function
_ZNKSt3setIPN4llvm14GlobalVariableESt4lessIS2_ESaIS2_EE4sizeEv: # @_ZNKSt3setIPN4llvm14GlobalVariableESt4lessIS2_ESaIS2_EE4sizeEv
	.cfi_startproc
# %bb.0:
	pushq	%rbp
	.cfi_def_cfa_offset 16
	.cfi_offset %rbp, -16
	movq	%rsp, %rbp
	.cfi_def_cfa_register %rbp
	subq	$16, %rsp
	movq	%rdi, -8(%rbp)
	movq	-8(%rbp), %rdi
	callq	_ZNKSt8_Rb_treeIPN4llvm14GlobalVariableES2_St9_IdentityIS2_ESt4lessIS2_ESaIS2_EE4sizeEv
	addq	$16, %rsp
	popq	%rbp
	.cfi_def_cfa %rsp, 8
	retq
.Lfunc_end74:
	.size	_ZNKSt3setIPN4llvm14GlobalVariableESt4lessIS2_ESaIS2_EE4sizeEv, .Lfunc_end74-_ZNKSt3setIPN4llvm14GlobalVariableESt4lessIS2_ESaIS2_EE4sizeEv
	.cfi_endproc
                                        # -- End function
	.section	.text._ZN4llvm11raw_ostreamlsENS_9StringRefE,"axG",@progbits,_ZN4llvm11raw_ostreamlsENS_9StringRefE,comdat
	.weak	_ZN4llvm11raw_ostreamlsENS_9StringRefE # -- Begin function _ZN4llvm11raw_ostreamlsENS_9StringRefE
	.p2align	4, 0x90
	.type	_ZN4llvm11raw_ostreamlsENS_9StringRefE,@function
_ZN4llvm11raw_ostreamlsENS_9StringRefE: # @_ZN4llvm11raw_ostreamlsENS_9StringRefE
	.cfi_startproc
# %bb.0:
	pushq	%rbp
	.cfi_def_cfa_offset 16
	.cfi_offset %rbp, -16
	movq	%rsp, %rbp
	.cfi_def_cfa_register %rbp
	subq	$64, %rsp
	movq	%rsi, -24(%rbp)
	movq	%rdx, -16(%rbp)
	movq	%rdi, -32(%rbp)
	movq	-32(%rbp), %rax
	leaq	-24(%rbp), %rdi
	movq	%rax, -48(%rbp)         # 8-byte Spill
	callq	_ZNK4llvm9StringRef4sizeEv
	movq	%rax, -40(%rbp)
	movq	-40(%rbp), %rax
	movq	-48(%rbp), %rcx         # 8-byte Reload
	movq	16(%rcx), %rdx
	movq	24(%rcx), %rsi
	subq	%rsi, %rdx
	cmpq	%rdx, %rax
	jbe	.LBB75_2
# %bb.1:
	leaq	-24(%rbp), %rdi
	callq	_ZNK4llvm9StringRef4dataEv
	movq	-40(%rbp), %rdx
	movq	-48(%rbp), %rdi         # 8-byte Reload
	movq	%rax, %rsi
	callq	_ZN4llvm11raw_ostream5writeEPKcm
	movq	%rax, -8(%rbp)
	jmp	.LBB75_5
.LBB75_2:
	cmpq	$0, -40(%rbp)
	je	.LBB75_4
# %bb.3:
	movq	-48(%rbp), %rax         # 8-byte Reload
	movq	24(%rax), %rdi
	leaq	-24(%rbp), %rcx
	movq	%rdi, -56(%rbp)         # 8-byte Spill
	movq	%rcx, %rdi
	callq	_ZNK4llvm9StringRef4dataEv
	movq	-40(%rbp), %rdx
	movq	-56(%rbp), %rdi         # 8-byte Reload
	movq	%rax, %rsi
	callq	memcpy
	movq	-40(%rbp), %rax
	movq	-48(%rbp), %rcx         # 8-byte Reload
	addq	24(%rcx), %rax
	movq	%rax, 24(%rcx)
.LBB75_4:
	movq	-48(%rbp), %rax         # 8-byte Reload
	movq	%rax, -8(%rbp)
.LBB75_5:
	movq	-8(%rbp), %rax
	addq	$64, %rsp
	popq	%rbp
	.cfi_def_cfa %rsp, 8
	retq
.Lfunc_end75:
	.size	_ZN4llvm11raw_ostreamlsENS_9StringRefE, .Lfunc_end75-_ZN4llvm11raw_ostreamlsENS_9StringRefE
	.cfi_endproc
                                        # -- End function
	.section	.text._ZN4llvm11raw_ostreamlsEPKc,"axG",@progbits,_ZN4llvm11raw_ostreamlsEPKc,comdat
	.weak	_ZN4llvm11raw_ostreamlsEPKc # -- Begin function _ZN4llvm11raw_ostreamlsEPKc
	.p2align	4, 0x90
	.type	_ZN4llvm11raw_ostreamlsEPKc,@function
_ZN4llvm11raw_ostreamlsEPKc:            # @_ZN4llvm11raw_ostreamlsEPKc
	.cfi_startproc
# %bb.0:
	pushq	%rbp
	.cfi_def_cfa_offset 16
	.cfi_offset %rbp, -16
	movq	%rsp, %rbp
	.cfi_def_cfa_register %rbp
	subq	$48, %rsp
	movq	%rdi, -8(%rbp)
	movq	%rsi, -16(%rbp)
	movq	-8(%rbp), %rdi
	movq	-16(%rbp), %rsi
	leaq	-32(%rbp), %rax
	movq	%rdi, -40(%rbp)         # 8-byte Spill
	movq	%rax, %rdi
	callq	_ZN4llvm9StringRefC2EPKc
	movq	-32(%rbp), %rsi
	movq	-24(%rbp), %rdx
	movq	-40(%rbp), %rdi         # 8-byte Reload
	callq	_ZN4llvm11raw_ostreamlsENS_9StringRefE
	addq	$48, %rsp
	popq	%rbp
	.cfi_def_cfa %rsp, 8
	retq
.Lfunc_end76:
	.size	_ZN4llvm11raw_ostreamlsEPKc, .Lfunc_end76-_ZN4llvm11raw_ostreamlsEPKc
	.cfi_endproc
                                        # -- End function
	.section	.text._ZN4llvm11raw_ostreamlsEj,"axG",@progbits,_ZN4llvm11raw_ostreamlsEj,comdat
	.weak	_ZN4llvm11raw_ostreamlsEj # -- Begin function _ZN4llvm11raw_ostreamlsEj
	.p2align	4, 0x90
	.type	_ZN4llvm11raw_ostreamlsEj,@function
_ZN4llvm11raw_ostreamlsEj:              # @_ZN4llvm11raw_ostreamlsEj
	.cfi_startproc
# %bb.0:
	pushq	%rbp
	.cfi_def_cfa_offset 16
	.cfi_offset %rbp, -16
	movq	%rsp, %rbp
	.cfi_def_cfa_register %rbp
	subq	$16, %rsp
	movq	%rdi, -8(%rbp)
	movl	%esi, -12(%rbp)
	movq	-8(%rbp), %rdi
	movl	-12(%rbp), %eax
	movl	%eax, %esi
	callq	_ZN4llvm11raw_ostreamlsEm
	addq	$16, %rsp
	popq	%rbp
	.cfi_def_cfa %rsp, 8
	retq
.Lfunc_end77:
	.size	_ZN4llvm11raw_ostreamlsEj, .Lfunc_end77-_ZN4llvm11raw_ostreamlsEj
	.cfi_endproc
                                        # -- End function
	.section	.text._ZNSt3setIPN4llvm14GlobalVariableESt4lessIS2_ESaIS2_EED2Ev,"axG",@progbits,_ZNSt3setIPN4llvm14GlobalVariableESt4lessIS2_ESaIS2_EED2Ev,comdat
	.weak	_ZNSt3setIPN4llvm14GlobalVariableESt4lessIS2_ESaIS2_EED2Ev # -- Begin function _ZNSt3setIPN4llvm14GlobalVariableESt4lessIS2_ESaIS2_EED2Ev
	.p2align	4, 0x90
	.type	_ZNSt3setIPN4llvm14GlobalVariableESt4lessIS2_ESaIS2_EED2Ev,@function
_ZNSt3setIPN4llvm14GlobalVariableESt4lessIS2_ESaIS2_EED2Ev: # @_ZNSt3setIPN4llvm14GlobalVariableESt4lessIS2_ESaIS2_EED2Ev
	.cfi_startproc
# %bb.0:
	pushq	%rbp
	.cfi_def_cfa_offset 16
	.cfi_offset %rbp, -16
	movq	%rsp, %rbp
	.cfi_def_cfa_register %rbp
	subq	$16, %rsp
	movq	%rdi, -8(%rbp)
	movq	-8(%rbp), %rdi
	callq	_ZNSt8_Rb_treeIPN4llvm14GlobalVariableES2_St9_IdentityIS2_ESt4lessIS2_ESaIS2_EED2Ev
	addq	$16, %rsp
	popq	%rbp
	.cfi_def_cfa %rsp, 8
	retq
.Lfunc_end78:
	.size	_ZNSt3setIPN4llvm14GlobalVariableESt4lessIS2_ESaIS2_EED2Ev, .Lfunc_end78-_ZNSt3setIPN4llvm14GlobalVariableESt4lessIS2_ESaIS2_EED2Ev
	.cfi_endproc
                                        # -- End function
	.section	.text._ZNSt3setIPN4llvm5ValueESt4lessIS2_ESaIS2_EED2Ev,"axG",@progbits,_ZNSt3setIPN4llvm5ValueESt4lessIS2_ESaIS2_EED2Ev,comdat
	.weak	_ZNSt3setIPN4llvm5ValueESt4lessIS2_ESaIS2_EED2Ev # -- Begin function _ZNSt3setIPN4llvm5ValueESt4lessIS2_ESaIS2_EED2Ev
	.p2align	4, 0x90
	.type	_ZNSt3setIPN4llvm5ValueESt4lessIS2_ESaIS2_EED2Ev,@function
_ZNSt3setIPN4llvm5ValueESt4lessIS2_ESaIS2_EED2Ev: # @_ZNSt3setIPN4llvm5ValueESt4lessIS2_ESaIS2_EED2Ev
	.cfi_startproc
# %bb.0:
	pushq	%rbp
	.cfi_def_cfa_offset 16
	.cfi_offset %rbp, -16
	movq	%rsp, %rbp
	.cfi_def_cfa_register %rbp
	subq	$16, %rsp
	movq	%rdi, -8(%rbp)
	movq	-8(%rbp), %rdi
	callq	_ZNSt8_Rb_treeIPN4llvm5ValueES2_St9_IdentityIS2_ESt4lessIS2_ESaIS2_EED2Ev
	addq	$16, %rsp
	popq	%rbp
	.cfi_def_cfa %rsp, 8
	retq
.Lfunc_end79:
	.size	_ZNSt3setIPN4llvm5ValueESt4lessIS2_ESaIS2_EED2Ev, .Lfunc_end79-_ZNSt3setIPN4llvm5ValueESt4lessIS2_ESaIS2_EED2Ev
	.cfi_endproc
                                        # -- End function
	.section	.text._ZN4llvm14ilist_iteratorINS_12ilist_detail12node_optionsINS_8FunctionELb0ELb0EvEELb0ELb0EEppEv,"axG",@progbits,_ZN4llvm14ilist_iteratorINS_12ilist_detail12node_optionsINS_8FunctionELb0ELb0EvEELb0ELb0EEppEv,comdat
	.weak	_ZN4llvm14ilist_iteratorINS_12ilist_detail12node_optionsINS_8FunctionELb0ELb0EvEELb0ELb0EEppEv # -- Begin function _ZN4llvm14ilist_iteratorINS_12ilist_detail12node_optionsINS_8FunctionELb0ELb0EvEELb0ELb0EEppEv
	.p2align	4, 0x90
	.type	_ZN4llvm14ilist_iteratorINS_12ilist_detail12node_optionsINS_8FunctionELb0ELb0EvEELb0ELb0EEppEv,@function
_ZN4llvm14ilist_iteratorINS_12ilist_detail12node_optionsINS_8FunctionELb0ELb0EvEELb0ELb0EEppEv: # @_ZN4llvm14ilist_iteratorINS_12ilist_detail12node_optionsINS_8FunctionELb0ELb0EvEELb0ELb0EEppEv
	.cfi_startproc
# %bb.0:
	pushq	%rbp
	.cfi_def_cfa_offset 16
	.cfi_offset %rbp, -16
	movq	%rsp, %rbp
	.cfi_def_cfa_register %rbp
	subq	$16, %rsp
	movq	%rdi, -8(%rbp)
	movq	-8(%rbp), %rax
	movq	(%rax), %rdi
	movq	%rax, -16(%rbp)         # 8-byte Spill
	callq	_ZN4llvm15ilist_node_implINS_12ilist_detail12node_optionsINS_8FunctionELb0ELb0EvEEE7getNextEv
	movq	-16(%rbp), %rcx         # 8-byte Reload
	movq	%rax, (%rcx)
	movq	%rcx, %rax
	addq	$16, %rsp
	popq	%rbp
	.cfi_def_cfa %rsp, 8
	retq
.Lfunc_end80:
	.size	_ZN4llvm14ilist_iteratorINS_12ilist_detail12node_optionsINS_8FunctionELb0ELb0EvEELb0ELb0EEppEv, .Lfunc_end80-_ZN4llvm14ilist_iteratorINS_12ilist_detail12node_optionsINS_8FunctionELb0ELb0EvEELb0ELb0EEppEv
	.cfi_endproc
                                        # -- End function
	.section	.text._ZN4llvm12simple_ilistINS_8FunctionEJEE5beginEv,"axG",@progbits,_ZN4llvm12simple_ilistINS_8FunctionEJEE5beginEv,comdat
	.weak	_ZN4llvm12simple_ilistINS_8FunctionEJEE5beginEv # -- Begin function _ZN4llvm12simple_ilistINS_8FunctionEJEE5beginEv
	.p2align	4, 0x90
	.type	_ZN4llvm12simple_ilistINS_8FunctionEJEE5beginEv,@function
_ZN4llvm12simple_ilistINS_8FunctionEJEE5beginEv: # @_ZN4llvm12simple_ilistINS_8FunctionEJEE5beginEv
	.cfi_startproc
# %bb.0:
	pushq	%rbp
	.cfi_def_cfa_offset 16
	.cfi_offset %rbp, -16
	movq	%rsp, %rbp
	.cfi_def_cfa_register %rbp
	subq	$32, %rsp
	movq	%rdi, -16(%rbp)
	movq	-16(%rbp), %rax
	leaq	-24(%rbp), %rdi
	movq	%rax, %rsi
	callq	_ZN4llvm14ilist_iteratorINS_12ilist_detail12node_optionsINS_8FunctionELb0ELb0EvEELb0ELb0EEC2ERNS_15ilist_node_implIS4_EE
	leaq	-24(%rbp), %rdi
	callq	_ZN4llvm14ilist_iteratorINS_12ilist_detail12node_optionsINS_8FunctionELb0ELb0EvEELb0ELb0EEppEv
	movq	(%rax), %rax
	movq	%rax, -8(%rbp)
	movq	-8(%rbp), %rax
	addq	$32, %rsp
	popq	%rbp
	.cfi_def_cfa %rsp, 8
	retq
.Lfunc_end81:
	.size	_ZN4llvm12simple_ilistINS_8FunctionEJEE5beginEv, .Lfunc_end81-_ZN4llvm12simple_ilistINS_8FunctionEJEE5beginEv
	.cfi_endproc
                                        # -- End function
	.section	.text._ZN4llvm14ilist_iteratorINS_12ilist_detail12node_optionsINS_8FunctionELb0ELb0EvEELb0ELb0EEC2ERNS_15ilist_node_implIS4_EE,"axG",@progbits,_ZN4llvm14ilist_iteratorINS_12ilist_detail12node_optionsINS_8FunctionELb0ELb0EvEELb0ELb0EEC2ERNS_15ilist_node_implIS4_EE,comdat
	.weak	_ZN4llvm14ilist_iteratorINS_12ilist_detail12node_optionsINS_8FunctionELb0ELb0EvEELb0ELb0EEC2ERNS_15ilist_node_implIS4_EE # -- Begin function _ZN4llvm14ilist_iteratorINS_12ilist_detail12node_optionsINS_8FunctionELb0ELb0EvEELb0ELb0EEC2ERNS_15ilist_node_implIS4_EE
	.p2align	4, 0x90
	.type	_ZN4llvm14ilist_iteratorINS_12ilist_detail12node_optionsINS_8FunctionELb0ELb0EvEELb0ELb0EEC2ERNS_15ilist_node_implIS4_EE,@function
_ZN4llvm14ilist_iteratorINS_12ilist_detail12node_optionsINS_8FunctionELb0ELb0EvEELb0ELb0EEC2ERNS_15ilist_node_implIS4_EE: # @_ZN4llvm14ilist_iteratorINS_12ilist_detail12node_optionsINS_8FunctionELb0ELb0EvEELb0ELb0EEC2ERNS_15ilist_node_implIS4_EE
	.cfi_startproc
# %bb.0:
	pushq	%rbp
	.cfi_def_cfa_offset 16
	.cfi_offset %rbp, -16
	movq	%rsp, %rbp
	.cfi_def_cfa_register %rbp
	movq	%rdi, -8(%rbp)
	movq	%rsi, -16(%rbp)
	movq	-8(%rbp), %rax
	movq	-16(%rbp), %rcx
	movq	%rcx, (%rax)
	popq	%rbp
	.cfi_def_cfa %rsp, 8
	retq
.Lfunc_end82:
	.size	_ZN4llvm14ilist_iteratorINS_12ilist_detail12node_optionsINS_8FunctionELb0ELb0EvEELb0ELb0EEC2ERNS_15ilist_node_implIS4_EE, .Lfunc_end82-_ZN4llvm14ilist_iteratorINS_12ilist_detail12node_optionsINS_8FunctionELb0ELb0EvEELb0ELb0EEC2ERNS_15ilist_node_implIS4_EE
	.cfi_endproc
                                        # -- End function
	.section	.text._ZN4llvm12simple_ilistINS_8FunctionEJEE3endEv,"axG",@progbits,_ZN4llvm12simple_ilistINS_8FunctionEJEE3endEv,comdat
	.weak	_ZN4llvm12simple_ilistINS_8FunctionEJEE3endEv # -- Begin function _ZN4llvm12simple_ilistINS_8FunctionEJEE3endEv
	.p2align	4, 0x90
	.type	_ZN4llvm12simple_ilistINS_8FunctionEJEE3endEv,@function
_ZN4llvm12simple_ilistINS_8FunctionEJEE3endEv: # @_ZN4llvm12simple_ilistINS_8FunctionEJEE3endEv
	.cfi_startproc
# %bb.0:
	pushq	%rbp
	.cfi_def_cfa_offset 16
	.cfi_offset %rbp, -16
	movq	%rsp, %rbp
	.cfi_def_cfa_register %rbp
	subq	$16, %rsp
	movq	%rdi, -16(%rbp)
	movq	-16(%rbp), %rax
	leaq	-8(%rbp), %rdi
	movq	%rax, %rsi
	callq	_ZN4llvm14ilist_iteratorINS_12ilist_detail12node_optionsINS_8FunctionELb0ELb0EvEELb0ELb0EEC2ERNS_15ilist_node_implIS4_EE
	movq	-8(%rbp), %rax
	addq	$16, %rsp
	popq	%rbp
	.cfi_def_cfa %rsp, 8
	retq
.Lfunc_end83:
	.size	_ZN4llvm12simple_ilistINS_8FunctionEJEE3endEv, .Lfunc_end83-_ZN4llvm12simple_ilistINS_8FunctionEJEE3endEv
	.cfi_endproc
                                        # -- End function
	.section	.text._ZNSt8_Rb_treeIPN4llvm5ValueES2_St9_IdentityIS2_ESt4lessIS2_ESaIS2_EEC2Ev,"axG",@progbits,_ZNSt8_Rb_treeIPN4llvm5ValueES2_St9_IdentityIS2_ESt4lessIS2_ESaIS2_EEC2Ev,comdat
	.weak	_ZNSt8_Rb_treeIPN4llvm5ValueES2_St9_IdentityIS2_ESt4lessIS2_ESaIS2_EEC2Ev # -- Begin function _ZNSt8_Rb_treeIPN4llvm5ValueES2_St9_IdentityIS2_ESt4lessIS2_ESaIS2_EEC2Ev
	.p2align	4, 0x90
	.type	_ZNSt8_Rb_treeIPN4llvm5ValueES2_St9_IdentityIS2_ESt4lessIS2_ESaIS2_EEC2Ev,@function
_ZNSt8_Rb_treeIPN4llvm5ValueES2_St9_IdentityIS2_ESt4lessIS2_ESaIS2_EEC2Ev: # @_ZNSt8_Rb_treeIPN4llvm5ValueES2_St9_IdentityIS2_ESt4lessIS2_ESaIS2_EEC2Ev
	.cfi_startproc
# %bb.0:
	pushq	%rbp
	.cfi_def_cfa_offset 16
	.cfi_offset %rbp, -16
	movq	%rsp, %rbp
	.cfi_def_cfa_register %rbp
	subq	$16, %rsp
	movq	%rdi, -8(%rbp)
	movq	-8(%rbp), %rdi
	callq	_ZNSt8_Rb_treeIPN4llvm5ValueES2_St9_IdentityIS2_ESt4lessIS2_ESaIS2_EE13_Rb_tree_implIS6_Lb1EEC2Ev
	addq	$16, %rsp
	popq	%rbp
	.cfi_def_cfa %rsp, 8
	retq
.Lfunc_end84:
	.size	_ZNSt8_Rb_treeIPN4llvm5ValueES2_St9_IdentityIS2_ESt4lessIS2_ESaIS2_EEC2Ev, .Lfunc_end84-_ZNSt8_Rb_treeIPN4llvm5ValueES2_St9_IdentityIS2_ESt4lessIS2_ESaIS2_EEC2Ev
	.cfi_endproc
                                        # -- End function
	.section	.text._ZNSt8_Rb_treeIPN4llvm5ValueES2_St9_IdentityIS2_ESt4lessIS2_ESaIS2_EE13_Rb_tree_implIS6_Lb1EEC2Ev,"axG",@progbits,_ZNSt8_Rb_treeIPN4llvm5ValueES2_St9_IdentityIS2_ESt4lessIS2_ESaIS2_EE13_Rb_tree_implIS6_Lb1EEC2Ev,comdat
	.weak	_ZNSt8_Rb_treeIPN4llvm5ValueES2_St9_IdentityIS2_ESt4lessIS2_ESaIS2_EE13_Rb_tree_implIS6_Lb1EEC2Ev # -- Begin function _ZNSt8_Rb_treeIPN4llvm5ValueES2_St9_IdentityIS2_ESt4lessIS2_ESaIS2_EE13_Rb_tree_implIS6_Lb1EEC2Ev
	.p2align	4, 0x90
	.type	_ZNSt8_Rb_treeIPN4llvm5ValueES2_St9_IdentityIS2_ESt4lessIS2_ESaIS2_EE13_Rb_tree_implIS6_Lb1EEC2Ev,@function
_ZNSt8_Rb_treeIPN4llvm5ValueES2_St9_IdentityIS2_ESt4lessIS2_ESaIS2_EE13_Rb_tree_implIS6_Lb1EEC2Ev: # @_ZNSt8_Rb_treeIPN4llvm5ValueES2_St9_IdentityIS2_ESt4lessIS2_ESaIS2_EE13_Rb_tree_implIS6_Lb1EEC2Ev
	.cfi_startproc
# %bb.0:
	pushq	%rbp
	.cfi_def_cfa_offset 16
	.cfi_offset %rbp, -16
	movq	%rsp, %rbp
	.cfi_def_cfa_register %rbp
	subq	$16, %rsp
	movq	%rdi, -8(%rbp)
	movq	-8(%rbp), %rax
	movq	%rax, %rcx
	movq	%rcx, %rdi
	movq	%rax, -16(%rbp)         # 8-byte Spill
	callq	_ZNSaISt13_Rb_tree_nodeIPN4llvm5ValueEEEC2Ev
	movq	-16(%rbp), %rax         # 8-byte Reload
	movq	%rax, %rdi
	callq	_ZNSt20_Rb_tree_key_compareISt4lessIPN4llvm5ValueEEEC2Ev
	movq	-16(%rbp), %rax         # 8-byte Reload
	addq	$8, %rax
	movq	%rax, %rdi
	callq	_ZNSt15_Rb_tree_headerC2Ev
	addq	$16, %rsp
	popq	%rbp
	.cfi_def_cfa %rsp, 8
	retq
.Lfunc_end85:
	.size	_ZNSt8_Rb_treeIPN4llvm5ValueES2_St9_IdentityIS2_ESt4lessIS2_ESaIS2_EE13_Rb_tree_implIS6_Lb1EEC2Ev, .Lfunc_end85-_ZNSt8_Rb_treeIPN4llvm5ValueES2_St9_IdentityIS2_ESt4lessIS2_ESaIS2_EE13_Rb_tree_implIS6_Lb1EEC2Ev
	.cfi_endproc
                                        # -- End function
	.section	.text._ZNSaISt13_Rb_tree_nodeIPN4llvm5ValueEEEC2Ev,"axG",@progbits,_ZNSaISt13_Rb_tree_nodeIPN4llvm5ValueEEEC2Ev,comdat
	.weak	_ZNSaISt13_Rb_tree_nodeIPN4llvm5ValueEEEC2Ev # -- Begin function _ZNSaISt13_Rb_tree_nodeIPN4llvm5ValueEEEC2Ev
	.p2align	4, 0x90
	.type	_ZNSaISt13_Rb_tree_nodeIPN4llvm5ValueEEEC2Ev,@function
_ZNSaISt13_Rb_tree_nodeIPN4llvm5ValueEEEC2Ev: # @_ZNSaISt13_Rb_tree_nodeIPN4llvm5ValueEEEC2Ev
	.cfi_startproc
# %bb.0:
	pushq	%rbp
	.cfi_def_cfa_offset 16
	.cfi_offset %rbp, -16
	movq	%rsp, %rbp
	.cfi_def_cfa_register %rbp
	subq	$16, %rsp
	movq	%rdi, -8(%rbp)
	movq	-8(%rbp), %rax
	movq	%rax, %rdi
	callq	_ZN9__gnu_cxx13new_allocatorISt13_Rb_tree_nodeIPN4llvm5ValueEEEC2Ev
	addq	$16, %rsp
	popq	%rbp
	.cfi_def_cfa %rsp, 8
	retq
.Lfunc_end86:
	.size	_ZNSaISt13_Rb_tree_nodeIPN4llvm5ValueEEEC2Ev, .Lfunc_end86-_ZNSaISt13_Rb_tree_nodeIPN4llvm5ValueEEEC2Ev
	.cfi_endproc
                                        # -- End function
	.section	.text._ZNSt20_Rb_tree_key_compareISt4lessIPN4llvm5ValueEEEC2Ev,"axG",@progbits,_ZNSt20_Rb_tree_key_compareISt4lessIPN4llvm5ValueEEEC2Ev,comdat
	.weak	_ZNSt20_Rb_tree_key_compareISt4lessIPN4llvm5ValueEEEC2Ev # -- Begin function _ZNSt20_Rb_tree_key_compareISt4lessIPN4llvm5ValueEEEC2Ev
	.p2align	4, 0x90
	.type	_ZNSt20_Rb_tree_key_compareISt4lessIPN4llvm5ValueEEEC2Ev,@function
_ZNSt20_Rb_tree_key_compareISt4lessIPN4llvm5ValueEEEC2Ev: # @_ZNSt20_Rb_tree_key_compareISt4lessIPN4llvm5ValueEEEC2Ev
	.cfi_startproc
# %bb.0:
	pushq	%rbp
	.cfi_def_cfa_offset 16
	.cfi_offset %rbp, -16
	movq	%rsp, %rbp
	.cfi_def_cfa_register %rbp
	movq	%rdi, -8(%rbp)
	popq	%rbp
	.cfi_def_cfa %rsp, 8
	retq
.Lfunc_end87:
	.size	_ZNSt20_Rb_tree_key_compareISt4lessIPN4llvm5ValueEEEC2Ev, .Lfunc_end87-_ZNSt20_Rb_tree_key_compareISt4lessIPN4llvm5ValueEEEC2Ev
	.cfi_endproc
                                        # -- End function
	.section	.text._ZNSt15_Rb_tree_headerC2Ev,"axG",@progbits,_ZNSt15_Rb_tree_headerC2Ev,comdat
	.weak	_ZNSt15_Rb_tree_headerC2Ev # -- Begin function _ZNSt15_Rb_tree_headerC2Ev
	.p2align	4, 0x90
	.type	_ZNSt15_Rb_tree_headerC2Ev,@function
_ZNSt15_Rb_tree_headerC2Ev:             # @_ZNSt15_Rb_tree_headerC2Ev
.Lfunc_begin1:
	.cfi_startproc
	.cfi_personality 3, __gxx_personality_v0
	.cfi_lsda 3, .Lexception1
# %bb.0:
	pushq	%rbp
	.cfi_def_cfa_offset 16
	.cfi_offset %rbp, -16
	movq	%rsp, %rbp
	.cfi_def_cfa_register %rbp
	subq	$16, %rsp
	movq	%rdi, -8(%rbp)
	movq	-8(%rbp), %rax
	movl	$0, (%rax)
.Ltmp427:
	movq	%rax, %rdi
	callq	_ZNSt15_Rb_tree_header8_M_resetEv
.Ltmp428:
	jmp	.LBB88_1
.LBB88_1:
	addq	$16, %rsp
	popq	%rbp
	.cfi_def_cfa %rsp, 8
	retq
.LBB88_2:
	.cfi_def_cfa %rbp, 16
.Ltmp429:
                                        # kill: def $edx killed $edx killed $rdx
	movq	%rax, %rdi
	movl	%edx, -12(%rbp)         # 4-byte Spill
	callq	__clang_call_terminate
.Lfunc_end88:
	.size	_ZNSt15_Rb_tree_headerC2Ev, .Lfunc_end88-_ZNSt15_Rb_tree_headerC2Ev
	.cfi_endproc
	.section	.gcc_except_table,"a",@progbits
	.p2align	2
GCC_except_table88:
.Lexception1:
	.byte	255                     # @LPStart Encoding = omit
	.byte	3                       # @TType Encoding = udata4
	.uleb128 .Lttbase0-.Lttbaseref0
.Lttbaseref0:
	.byte	1                       # Call site Encoding = uleb128
	.uleb128 .Lcst_end1-.Lcst_begin1
.Lcst_begin1:
	.uleb128 .Ltmp427-.Lfunc_begin1 # >> Call Site 1 <<
	.uleb128 .Ltmp428-.Ltmp427      #   Call between .Ltmp427 and .Ltmp428
	.uleb128 .Ltmp429-.Lfunc_begin1 #     jumps to .Ltmp429
	.byte	1                       #   On action: 1
.Lcst_end1:
	.byte	1                       # >> Action Record 1 <<
                                        #   Catch TypeInfo 1
	.byte	0                       #   No further actions
	.p2align	2
                                        # >> Catch TypeInfos <<
	.long	0                       # TypeInfo 1
.Lttbase0:
	.p2align	2
                                        # -- End function
	.section	.text._ZN9__gnu_cxx13new_allocatorISt13_Rb_tree_nodeIPN4llvm5ValueEEEC2Ev,"axG",@progbits,_ZN9__gnu_cxx13new_allocatorISt13_Rb_tree_nodeIPN4llvm5ValueEEEC2Ev,comdat
	.weak	_ZN9__gnu_cxx13new_allocatorISt13_Rb_tree_nodeIPN4llvm5ValueEEEC2Ev # -- Begin function _ZN9__gnu_cxx13new_allocatorISt13_Rb_tree_nodeIPN4llvm5ValueEEEC2Ev
	.p2align	4, 0x90
	.type	_ZN9__gnu_cxx13new_allocatorISt13_Rb_tree_nodeIPN4llvm5ValueEEEC2Ev,@function
_ZN9__gnu_cxx13new_allocatorISt13_Rb_tree_nodeIPN4llvm5ValueEEEC2Ev: # @_ZN9__gnu_cxx13new_allocatorISt13_Rb_tree_nodeIPN4llvm5ValueEEEC2Ev
	.cfi_startproc
# %bb.0:
	pushq	%rbp
	.cfi_def_cfa_offset 16
	.cfi_offset %rbp, -16
	movq	%rsp, %rbp
	.cfi_def_cfa_register %rbp
	movq	%rdi, -8(%rbp)
	popq	%rbp
	.cfi_def_cfa %rsp, 8
	retq
.Lfunc_end89:
	.size	_ZN9__gnu_cxx13new_allocatorISt13_Rb_tree_nodeIPN4llvm5ValueEEEC2Ev, .Lfunc_end89-_ZN9__gnu_cxx13new_allocatorISt13_Rb_tree_nodeIPN4llvm5ValueEEEC2Ev
	.cfi_endproc
                                        # -- End function
	.section	.text._ZNSt15_Rb_tree_header8_M_resetEv,"axG",@progbits,_ZNSt15_Rb_tree_header8_M_resetEv,comdat
	.weak	_ZNSt15_Rb_tree_header8_M_resetEv # -- Begin function _ZNSt15_Rb_tree_header8_M_resetEv
	.p2align	4, 0x90
	.type	_ZNSt15_Rb_tree_header8_M_resetEv,@function
_ZNSt15_Rb_tree_header8_M_resetEv:      # @_ZNSt15_Rb_tree_header8_M_resetEv
	.cfi_startproc
# %bb.0:
	pushq	%rbp
	.cfi_def_cfa_offset 16
	.cfi_offset %rbp, -16
	movq	%rsp, %rbp
	.cfi_def_cfa_register %rbp
	movq	%rdi, -8(%rbp)
	movq	-8(%rbp), %rax
	movq	$0, 8(%rax)
	movq	%rax, 16(%rax)
	movq	%rax, 24(%rax)
	movq	$0, 32(%rax)
	popq	%rbp
	.cfi_def_cfa %rsp, 8
	retq
.Lfunc_end90:
	.size	_ZNSt15_Rb_tree_header8_M_resetEv, .Lfunc_end90-_ZNSt15_Rb_tree_header8_M_resetEv
	.cfi_endproc
                                        # -- End function
	.section	.text.__clang_call_terminate,"axG",@progbits,__clang_call_terminate,comdat
	.hidden	__clang_call_terminate  # -- Begin function __clang_call_terminate
	.weak	__clang_call_terminate
	.p2align	4, 0x90
	.type	__clang_call_terminate,@function
__clang_call_terminate:                 # @__clang_call_terminate
# %bb.0:
	pushq	%rax
	callq	__cxa_begin_catch
	movq	%rax, (%rsp)            # 8-byte Spill
	callq	_ZSt9terminatev
.Lfunc_end91:
	.size	__clang_call_terminate, .Lfunc_end91-__clang_call_terminate
                                        # -- End function
	.section	.text._ZNSt8_Rb_treeIPN4llvm14GlobalVariableES2_St9_IdentityIS2_ESt4lessIS2_ESaIS2_EEC2Ev,"axG",@progbits,_ZNSt8_Rb_treeIPN4llvm14GlobalVariableES2_St9_IdentityIS2_ESt4lessIS2_ESaIS2_EEC2Ev,comdat
	.weak	_ZNSt8_Rb_treeIPN4llvm14GlobalVariableES2_St9_IdentityIS2_ESt4lessIS2_ESaIS2_EEC2Ev # -- Begin function _ZNSt8_Rb_treeIPN4llvm14GlobalVariableES2_St9_IdentityIS2_ESt4lessIS2_ESaIS2_EEC2Ev
	.p2align	4, 0x90
	.type	_ZNSt8_Rb_treeIPN4llvm14GlobalVariableES2_St9_IdentityIS2_ESt4lessIS2_ESaIS2_EEC2Ev,@function
_ZNSt8_Rb_treeIPN4llvm14GlobalVariableES2_St9_IdentityIS2_ESt4lessIS2_ESaIS2_EEC2Ev: # @_ZNSt8_Rb_treeIPN4llvm14GlobalVariableES2_St9_IdentityIS2_ESt4lessIS2_ESaIS2_EEC2Ev
	.cfi_startproc
# %bb.0:
	pushq	%rbp
	.cfi_def_cfa_offset 16
	.cfi_offset %rbp, -16
	movq	%rsp, %rbp
	.cfi_def_cfa_register %rbp
	subq	$16, %rsp
	movq	%rdi, -8(%rbp)
	movq	-8(%rbp), %rdi
	callq	_ZNSt8_Rb_treeIPN4llvm14GlobalVariableES2_St9_IdentityIS2_ESt4lessIS2_ESaIS2_EE13_Rb_tree_implIS6_Lb1EEC2Ev
	addq	$16, %rsp
	popq	%rbp
	.cfi_def_cfa %rsp, 8
	retq
.Lfunc_end92:
	.size	_ZNSt8_Rb_treeIPN4llvm14GlobalVariableES2_St9_IdentityIS2_ESt4lessIS2_ESaIS2_EEC2Ev, .Lfunc_end92-_ZNSt8_Rb_treeIPN4llvm14GlobalVariableES2_St9_IdentityIS2_ESt4lessIS2_ESaIS2_EEC2Ev
	.cfi_endproc
                                        # -- End function
	.section	.text._ZNSt8_Rb_treeIPN4llvm14GlobalVariableES2_St9_IdentityIS2_ESt4lessIS2_ESaIS2_EE13_Rb_tree_implIS6_Lb1EEC2Ev,"axG",@progbits,_ZNSt8_Rb_treeIPN4llvm14GlobalVariableES2_St9_IdentityIS2_ESt4lessIS2_ESaIS2_EE13_Rb_tree_implIS6_Lb1EEC2Ev,comdat
	.weak	_ZNSt8_Rb_treeIPN4llvm14GlobalVariableES2_St9_IdentityIS2_ESt4lessIS2_ESaIS2_EE13_Rb_tree_implIS6_Lb1EEC2Ev # -- Begin function _ZNSt8_Rb_treeIPN4llvm14GlobalVariableES2_St9_IdentityIS2_ESt4lessIS2_ESaIS2_EE13_Rb_tree_implIS6_Lb1EEC2Ev
	.p2align	4, 0x90
	.type	_ZNSt8_Rb_treeIPN4llvm14GlobalVariableES2_St9_IdentityIS2_ESt4lessIS2_ESaIS2_EE13_Rb_tree_implIS6_Lb1EEC2Ev,@function
_ZNSt8_Rb_treeIPN4llvm14GlobalVariableES2_St9_IdentityIS2_ESt4lessIS2_ESaIS2_EE13_Rb_tree_implIS6_Lb1EEC2Ev: # @_ZNSt8_Rb_treeIPN4llvm14GlobalVariableES2_St9_IdentityIS2_ESt4lessIS2_ESaIS2_EE13_Rb_tree_implIS6_Lb1EEC2Ev
	.cfi_startproc
# %bb.0:
	pushq	%rbp
	.cfi_def_cfa_offset 16
	.cfi_offset %rbp, -16
	movq	%rsp, %rbp
	.cfi_def_cfa_register %rbp
	subq	$16, %rsp
	movq	%rdi, -8(%rbp)
	movq	-8(%rbp), %rax
	movq	%rax, %rcx
	movq	%rcx, %rdi
	movq	%rax, -16(%rbp)         # 8-byte Spill
	callq	_ZNSaISt13_Rb_tree_nodeIPN4llvm14GlobalVariableEEEC2Ev
	movq	-16(%rbp), %rax         # 8-byte Reload
	movq	%rax, %rdi
	callq	_ZNSt20_Rb_tree_key_compareISt4lessIPN4llvm14GlobalVariableEEEC2Ev
	movq	-16(%rbp), %rax         # 8-byte Reload
	addq	$8, %rax
	movq	%rax, %rdi
	callq	_ZNSt15_Rb_tree_headerC2Ev
	addq	$16, %rsp
	popq	%rbp
	.cfi_def_cfa %rsp, 8
	retq
.Lfunc_end93:
	.size	_ZNSt8_Rb_treeIPN4llvm14GlobalVariableES2_St9_IdentityIS2_ESt4lessIS2_ESaIS2_EE13_Rb_tree_implIS6_Lb1EEC2Ev, .Lfunc_end93-_ZNSt8_Rb_treeIPN4llvm14GlobalVariableES2_St9_IdentityIS2_ESt4lessIS2_ESaIS2_EE13_Rb_tree_implIS6_Lb1EEC2Ev
	.cfi_endproc
                                        # -- End function
	.section	.text._ZNSaISt13_Rb_tree_nodeIPN4llvm14GlobalVariableEEEC2Ev,"axG",@progbits,_ZNSaISt13_Rb_tree_nodeIPN4llvm14GlobalVariableEEEC2Ev,comdat
	.weak	_ZNSaISt13_Rb_tree_nodeIPN4llvm14GlobalVariableEEEC2Ev # -- Begin function _ZNSaISt13_Rb_tree_nodeIPN4llvm14GlobalVariableEEEC2Ev
	.p2align	4, 0x90
	.type	_ZNSaISt13_Rb_tree_nodeIPN4llvm14GlobalVariableEEEC2Ev,@function
_ZNSaISt13_Rb_tree_nodeIPN4llvm14GlobalVariableEEEC2Ev: # @_ZNSaISt13_Rb_tree_nodeIPN4llvm14GlobalVariableEEEC2Ev
	.cfi_startproc
# %bb.0:
	pushq	%rbp
	.cfi_def_cfa_offset 16
	.cfi_offset %rbp, -16
	movq	%rsp, %rbp
	.cfi_def_cfa_register %rbp
	subq	$16, %rsp
	movq	%rdi, -8(%rbp)
	movq	-8(%rbp), %rax
	movq	%rax, %rdi
	callq	_ZN9__gnu_cxx13new_allocatorISt13_Rb_tree_nodeIPN4llvm14GlobalVariableEEEC2Ev
	addq	$16, %rsp
	popq	%rbp
	.cfi_def_cfa %rsp, 8
	retq
.Lfunc_end94:
	.size	_ZNSaISt13_Rb_tree_nodeIPN4llvm14GlobalVariableEEEC2Ev, .Lfunc_end94-_ZNSaISt13_Rb_tree_nodeIPN4llvm14GlobalVariableEEEC2Ev
	.cfi_endproc
                                        # -- End function
	.section	.text._ZNSt20_Rb_tree_key_compareISt4lessIPN4llvm14GlobalVariableEEEC2Ev,"axG",@progbits,_ZNSt20_Rb_tree_key_compareISt4lessIPN4llvm14GlobalVariableEEEC2Ev,comdat
	.weak	_ZNSt20_Rb_tree_key_compareISt4lessIPN4llvm14GlobalVariableEEEC2Ev # -- Begin function _ZNSt20_Rb_tree_key_compareISt4lessIPN4llvm14GlobalVariableEEEC2Ev
	.p2align	4, 0x90
	.type	_ZNSt20_Rb_tree_key_compareISt4lessIPN4llvm14GlobalVariableEEEC2Ev,@function
_ZNSt20_Rb_tree_key_compareISt4lessIPN4llvm14GlobalVariableEEEC2Ev: # @_ZNSt20_Rb_tree_key_compareISt4lessIPN4llvm14GlobalVariableEEEC2Ev
	.cfi_startproc
# %bb.0:
	pushq	%rbp
	.cfi_def_cfa_offset 16
	.cfi_offset %rbp, -16
	movq	%rsp, %rbp
	.cfi_def_cfa_register %rbp
	movq	%rdi, -8(%rbp)
	popq	%rbp
	.cfi_def_cfa %rsp, 8
	retq
.Lfunc_end95:
	.size	_ZNSt20_Rb_tree_key_compareISt4lessIPN4llvm14GlobalVariableEEEC2Ev, .Lfunc_end95-_ZNSt20_Rb_tree_key_compareISt4lessIPN4llvm14GlobalVariableEEEC2Ev
	.cfi_endproc
                                        # -- End function
	.section	.text._ZN9__gnu_cxx13new_allocatorISt13_Rb_tree_nodeIPN4llvm14GlobalVariableEEEC2Ev,"axG",@progbits,_ZN9__gnu_cxx13new_allocatorISt13_Rb_tree_nodeIPN4llvm14GlobalVariableEEEC2Ev,comdat
	.weak	_ZN9__gnu_cxx13new_allocatorISt13_Rb_tree_nodeIPN4llvm14GlobalVariableEEEC2Ev # -- Begin function _ZN9__gnu_cxx13new_allocatorISt13_Rb_tree_nodeIPN4llvm14GlobalVariableEEEC2Ev
	.p2align	4, 0x90
	.type	_ZN9__gnu_cxx13new_allocatorISt13_Rb_tree_nodeIPN4llvm14GlobalVariableEEEC2Ev,@function
_ZN9__gnu_cxx13new_allocatorISt13_Rb_tree_nodeIPN4llvm14GlobalVariableEEEC2Ev: # @_ZN9__gnu_cxx13new_allocatorISt13_Rb_tree_nodeIPN4llvm14GlobalVariableEEEC2Ev
	.cfi_startproc
# %bb.0:
	pushq	%rbp
	.cfi_def_cfa_offset 16
	.cfi_offset %rbp, -16
	movq	%rsp, %rbp
	.cfi_def_cfa_register %rbp
	movq	%rdi, -8(%rbp)
	popq	%rbp
	.cfi_def_cfa %rsp, 8
	retq
.Lfunc_end96:
	.size	_ZN9__gnu_cxx13new_allocatorISt13_Rb_tree_nodeIPN4llvm14GlobalVariableEEEC2Ev, .Lfunc_end96-_ZN9__gnu_cxx13new_allocatorISt13_Rb_tree_nodeIPN4llvm14GlobalVariableEEEC2Ev
	.cfi_endproc
                                        # -- End function
	.section	.text._ZN4llvm12simple_ilistINS_10BasicBlockEJEE5beginEv,"axG",@progbits,_ZN4llvm12simple_ilistINS_10BasicBlockEJEE5beginEv,comdat
	.weak	_ZN4llvm12simple_ilistINS_10BasicBlockEJEE5beginEv # -- Begin function _ZN4llvm12simple_ilistINS_10BasicBlockEJEE5beginEv
	.p2align	4, 0x90
	.type	_ZN4llvm12simple_ilistINS_10BasicBlockEJEE5beginEv,@function
_ZN4llvm12simple_ilistINS_10BasicBlockEJEE5beginEv: # @_ZN4llvm12simple_ilistINS_10BasicBlockEJEE5beginEv
	.cfi_startproc
# %bb.0:
	pushq	%rbp
	.cfi_def_cfa_offset 16
	.cfi_offset %rbp, -16
	movq	%rsp, %rbp
	.cfi_def_cfa_register %rbp
	subq	$32, %rsp
	movq	%rdi, -16(%rbp)
	movq	-16(%rbp), %rax
	leaq	-24(%rbp), %rdi
	movq	%rax, %rsi
	callq	_ZN4llvm14ilist_iteratorINS_12ilist_detail12node_optionsINS_10BasicBlockELb0ELb0EvEELb0ELb0EEC2ERNS_15ilist_node_implIS4_EE
	leaq	-24(%rbp), %rdi
	callq	_ZN4llvm14ilist_iteratorINS_12ilist_detail12node_optionsINS_10BasicBlockELb0ELb0EvEELb0ELb0EEppEv
	movq	(%rax), %rax
	movq	%rax, -8(%rbp)
	movq	-8(%rbp), %rax
	addq	$32, %rsp
	popq	%rbp
	.cfi_def_cfa %rsp, 8
	retq
.Lfunc_end97:
	.size	_ZN4llvm12simple_ilistINS_10BasicBlockEJEE5beginEv, .Lfunc_end97-_ZN4llvm12simple_ilistINS_10BasicBlockEJEE5beginEv
	.cfi_endproc
                                        # -- End function
	.section	.text._ZN4llvm14ilist_iteratorINS_12ilist_detail12node_optionsINS_10BasicBlockELb0ELb0EvEELb0ELb0EEC2ERNS_15ilist_node_implIS4_EE,"axG",@progbits,_ZN4llvm14ilist_iteratorINS_12ilist_detail12node_optionsINS_10BasicBlockELb0ELb0EvEELb0ELb0EEC2ERNS_15ilist_node_implIS4_EE,comdat
	.weak	_ZN4llvm14ilist_iteratorINS_12ilist_detail12node_optionsINS_10BasicBlockELb0ELb0EvEELb0ELb0EEC2ERNS_15ilist_node_implIS4_EE # -- Begin function _ZN4llvm14ilist_iteratorINS_12ilist_detail12node_optionsINS_10BasicBlockELb0ELb0EvEELb0ELb0EEC2ERNS_15ilist_node_implIS4_EE
	.p2align	4, 0x90
	.type	_ZN4llvm14ilist_iteratorINS_12ilist_detail12node_optionsINS_10BasicBlockELb0ELb0EvEELb0ELb0EEC2ERNS_15ilist_node_implIS4_EE,@function
_ZN4llvm14ilist_iteratorINS_12ilist_detail12node_optionsINS_10BasicBlockELb0ELb0EvEELb0ELb0EEC2ERNS_15ilist_node_implIS4_EE: # @_ZN4llvm14ilist_iteratorINS_12ilist_detail12node_optionsINS_10BasicBlockELb0ELb0EvEELb0ELb0EEC2ERNS_15ilist_node_implIS4_EE
	.cfi_startproc
# %bb.0:
	pushq	%rbp
	.cfi_def_cfa_offset 16
	.cfi_offset %rbp, -16
	movq	%rsp, %rbp
	.cfi_def_cfa_register %rbp
	movq	%rdi, -8(%rbp)
	movq	%rsi, -16(%rbp)
	movq	-8(%rbp), %rax
	movq	-16(%rbp), %rcx
	movq	%rcx, (%rax)
	popq	%rbp
	.cfi_def_cfa %rsp, 8
	retq
.Lfunc_end98:
	.size	_ZN4llvm14ilist_iteratorINS_12ilist_detail12node_optionsINS_10BasicBlockELb0ELb0EvEELb0ELb0EEC2ERNS_15ilist_node_implIS4_EE, .Lfunc_end98-_ZN4llvm14ilist_iteratorINS_12ilist_detail12node_optionsINS_10BasicBlockELb0ELb0EvEELb0ELb0EEC2ERNS_15ilist_node_implIS4_EE
	.cfi_endproc
                                        # -- End function
	.section	.text._ZN4llvm12simple_ilistINS_10BasicBlockEJEE3endEv,"axG",@progbits,_ZN4llvm12simple_ilistINS_10BasicBlockEJEE3endEv,comdat
	.weak	_ZN4llvm12simple_ilistINS_10BasicBlockEJEE3endEv # -- Begin function _ZN4llvm12simple_ilistINS_10BasicBlockEJEE3endEv
	.p2align	4, 0x90
	.type	_ZN4llvm12simple_ilistINS_10BasicBlockEJEE3endEv,@function
_ZN4llvm12simple_ilistINS_10BasicBlockEJEE3endEv: # @_ZN4llvm12simple_ilistINS_10BasicBlockEJEE3endEv
	.cfi_startproc
# %bb.0:
	pushq	%rbp
	.cfi_def_cfa_offset 16
	.cfi_offset %rbp, -16
	movq	%rsp, %rbp
	.cfi_def_cfa_register %rbp
	subq	$16, %rsp
	movq	%rdi, -16(%rbp)
	movq	-16(%rbp), %rax
	leaq	-8(%rbp), %rdi
	movq	%rax, %rsi
	callq	_ZN4llvm14ilist_iteratorINS_12ilist_detail12node_optionsINS_10BasicBlockELb0ELb0EvEELb0ELb0EEC2ERNS_15ilist_node_implIS4_EE
	movq	-8(%rbp), %rax
	addq	$16, %rsp
	popq	%rbp
	.cfi_def_cfa %rsp, 8
	retq
.Lfunc_end99:
	.size	_ZN4llvm12simple_ilistINS_10BasicBlockEJEE3endEv, .Lfunc_end99-_ZN4llvm12simple_ilistINS_10BasicBlockEJEE3endEv
	.cfi_endproc
                                        # -- End function
	.section	.text._ZN4llvm10pred_beginEPNS_10BasicBlockE,"axG",@progbits,_ZN4llvm10pred_beginEPNS_10BasicBlockE,comdat
	.weak	_ZN4llvm10pred_beginEPNS_10BasicBlockE # -- Begin function _ZN4llvm10pred_beginEPNS_10BasicBlockE
	.p2align	4, 0x90
	.type	_ZN4llvm10pred_beginEPNS_10BasicBlockE,@function
_ZN4llvm10pred_beginEPNS_10BasicBlockE: # @_ZN4llvm10pred_beginEPNS_10BasicBlockE
	.cfi_startproc
# %bb.0:
	pushq	%rbp
	.cfi_def_cfa_offset 16
	.cfi_offset %rbp, -16
	movq	%rsp, %rbp
	.cfi_def_cfa_register %rbp
	subq	$16, %rsp
	movq	%rdi, -16(%rbp)
	movq	-16(%rbp), %rsi
	leaq	-8(%rbp), %rdi
	callq	_ZN4llvm12PredIteratorINS_10BasicBlockENS_5Value18user_iterator_implINS_4UserEEEEC2EPS1_
	movq	-8(%rbp), %rax
	addq	$16, %rsp
	popq	%rbp
	.cfi_def_cfa %rsp, 8
	retq
.Lfunc_end100:
	.size	_ZN4llvm10pred_beginEPNS_10BasicBlockE, .Lfunc_end100-_ZN4llvm10pred_beginEPNS_10BasicBlockE
	.cfi_endproc
                                        # -- End function
	.section	.text._ZN4llvm8pred_endEPNS_10BasicBlockE,"axG",@progbits,_ZN4llvm8pred_endEPNS_10BasicBlockE,comdat
	.weak	_ZN4llvm8pred_endEPNS_10BasicBlockE # -- Begin function _ZN4llvm8pred_endEPNS_10BasicBlockE
	.p2align	4, 0x90
	.type	_ZN4llvm8pred_endEPNS_10BasicBlockE,@function
_ZN4llvm8pred_endEPNS_10BasicBlockE:    # @_ZN4llvm8pred_endEPNS_10BasicBlockE
	.cfi_startproc
# %bb.0:
	pushq	%rbp
	.cfi_def_cfa_offset 16
	.cfi_offset %rbp, -16
	movq	%rsp, %rbp
	.cfi_def_cfa_register %rbp
	subq	$16, %rsp
	movq	%rdi, -16(%rbp)
	movq	-16(%rbp), %rsi
	leaq	-8(%rbp), %rdi
	movl	$1, %edx
	callq	_ZN4llvm12PredIteratorINS_10BasicBlockENS_5Value18user_iterator_implINS_4UserEEEEC2EPS1_b
	movq	-8(%rbp), %rax
	addq	$16, %rsp
	popq	%rbp
	.cfi_def_cfa %rsp, 8
	retq
.Lfunc_end101:
	.size	_ZN4llvm8pred_endEPNS_10BasicBlockE, .Lfunc_end101-_ZN4llvm8pred_endEPNS_10BasicBlockE
	.cfi_endproc
                                        # -- End function
	.section	.text._ZN4llvm14iterator_rangeINS_12PredIteratorINS_10BasicBlockENS_5Value18user_iterator_implINS_4UserEEEEEEC2ES7_S7_,"axG",@progbits,_ZN4llvm14iterator_rangeINS_12PredIteratorINS_10BasicBlockENS_5Value18user_iterator_implINS_4UserEEEEEEC2ES7_S7_,comdat
	.weak	_ZN4llvm14iterator_rangeINS_12PredIteratorINS_10BasicBlockENS_5Value18user_iterator_implINS_4UserEEEEEEC2ES7_S7_ # -- Begin function _ZN4llvm14iterator_rangeINS_12PredIteratorINS_10BasicBlockENS_5Value18user_iterator_implINS_4UserEEEEEEC2ES7_S7_
	.p2align	4, 0x90
	.type	_ZN4llvm14iterator_rangeINS_12PredIteratorINS_10BasicBlockENS_5Value18user_iterator_implINS_4UserEEEEEEC2ES7_S7_,@function
_ZN4llvm14iterator_rangeINS_12PredIteratorINS_10BasicBlockENS_5Value18user_iterator_implINS_4UserEEEEEEC2ES7_S7_: # @_ZN4llvm14iterator_rangeINS_12PredIteratorINS_10BasicBlockENS_5Value18user_iterator_implINS_4UserEEEEEEC2ES7_S7_
	.cfi_startproc
# %bb.0:
	pushq	%rbp
	.cfi_def_cfa_offset 16
	.cfi_offset %rbp, -16
	movq	%rsp, %rbp
	.cfi_def_cfa_register %rbp
	subq	$32, %rsp
	movq	%rsi, -8(%rbp)
	movq	%rdx, -16(%rbp)
	movq	%rdi, -24(%rbp)
	movq	-24(%rbp), %rax
	leaq	-8(%rbp), %rdi
	movq	%rax, -32(%rbp)         # 8-byte Spill
	callq	_ZSt4moveIRN4llvm12PredIteratorINS0_10BasicBlockENS0_5Value18user_iterator_implINS0_4UserEEEEEEONSt16remove_referenceIT_E4typeEOSA_
	movq	(%rax), %rax
	movq	-32(%rbp), %rcx         # 8-byte Reload
	movq	%rax, (%rcx)
	leaq	-16(%rbp), %rdi
	callq	_ZSt4moveIRN4llvm12PredIteratorINS0_10BasicBlockENS0_5Value18user_iterator_implINS0_4UserEEEEEEONSt16remove_referenceIT_E4typeEOSA_
	movq	(%rax), %rax
	movq	-32(%rbp), %rcx         # 8-byte Reload
	movq	%rax, 8(%rcx)
	addq	$32, %rsp
	popq	%rbp
	.cfi_def_cfa %rsp, 8
	retq
.Lfunc_end102:
	.size	_ZN4llvm14iterator_rangeINS_12PredIteratorINS_10BasicBlockENS_5Value18user_iterator_implINS_4UserEEEEEEC2ES7_S7_, .Lfunc_end102-_ZN4llvm14iterator_rangeINS_12PredIteratorINS_10BasicBlockENS_5Value18user_iterator_implINS_4UserEEEEEEC2ES7_S7_
	.cfi_endproc
                                        # -- End function
	.section	.text._ZN4llvm12PredIteratorINS_10BasicBlockENS_5Value18user_iterator_implINS_4UserEEEEC2EPS1_,"axG",@progbits,_ZN4llvm12PredIteratorINS_10BasicBlockENS_5Value18user_iterator_implINS_4UserEEEEC2EPS1_,comdat
	.weak	_ZN4llvm12PredIteratorINS_10BasicBlockENS_5Value18user_iterator_implINS_4UserEEEEC2EPS1_ # -- Begin function _ZN4llvm12PredIteratorINS_10BasicBlockENS_5Value18user_iterator_implINS_4UserEEEEC2EPS1_
	.p2align	4, 0x90
	.type	_ZN4llvm12PredIteratorINS_10BasicBlockENS_5Value18user_iterator_implINS_4UserEEEEC2EPS1_,@function
_ZN4llvm12PredIteratorINS_10BasicBlockENS_5Value18user_iterator_implINS_4UserEEEEC2EPS1_: # @_ZN4llvm12PredIteratorINS_10BasicBlockENS_5Value18user_iterator_implINS_4UserEEEEC2EPS1_
	.cfi_startproc
# %bb.0:
	pushq	%rbp
	.cfi_def_cfa_offset 16
	.cfi_offset %rbp, -16
	movq	%rsp, %rbp
	.cfi_def_cfa_register %rbp
	subq	$32, %rsp
	movq	%rdi, -8(%rbp)
	movq	%rsi, -16(%rbp)
	movq	-8(%rbp), %rax
	movq	-16(%rbp), %rcx
	movq	%rcx, %rdi
	movq	%rax, -24(%rbp)         # 8-byte Spill
	callq	_ZN4llvm5Value10user_beginEv
	movq	-24(%rbp), %rcx         # 8-byte Reload
	movq	%rax, (%rcx)
	movq	%rcx, %rdi
	callq	_ZN4llvm12PredIteratorINS_10BasicBlockENS_5Value18user_iterator_implINS_4UserEEEE25advancePastNonTerminatorsEv
	addq	$32, %rsp
	popq	%rbp
	.cfi_def_cfa %rsp, 8
	retq
.Lfunc_end103:
	.size	_ZN4llvm12PredIteratorINS_10BasicBlockENS_5Value18user_iterator_implINS_4UserEEEEC2EPS1_, .Lfunc_end103-_ZN4llvm12PredIteratorINS_10BasicBlockENS_5Value18user_iterator_implINS_4UserEEEEC2EPS1_
	.cfi_endproc
                                        # -- End function
	.section	.text._ZN4llvm5Value10user_beginEv,"axG",@progbits,_ZN4llvm5Value10user_beginEv,comdat
	.weak	_ZN4llvm5Value10user_beginEv # -- Begin function _ZN4llvm5Value10user_beginEv
	.p2align	4, 0x90
	.type	_ZN4llvm5Value10user_beginEv,@function
_ZN4llvm5Value10user_beginEv:           # @_ZN4llvm5Value10user_beginEv
	.cfi_startproc
# %bb.0:
	pushq	%rbp
	.cfi_def_cfa_offset 16
	.cfi_offset %rbp, -16
	movq	%rsp, %rbp
	.cfi_def_cfa_register %rbp
	subq	$32, %rsp
	movq	%rdi, -16(%rbp)
	movq	-16(%rbp), %rax
	movq	%rax, %rdi
	movq	%rax, -24(%rbp)         # 8-byte Spill
	callq	_ZNK4llvm5Value26assertModuleIsMaterializedEv
	movq	-24(%rbp), %rdi         # 8-byte Reload
	callq	_ZN4llvm5Value23materialized_user_beginEv
	movq	%rax, -8(%rbp)
	movq	-8(%rbp), %rax
	addq	$32, %rsp
	popq	%rbp
	.cfi_def_cfa %rsp, 8
	retq
.Lfunc_end104:
	.size	_ZN4llvm5Value10user_beginEv, .Lfunc_end104-_ZN4llvm5Value10user_beginEv
	.cfi_endproc
                                        # -- End function
	.section	.text._ZN4llvm12PredIteratorINS_10BasicBlockENS_5Value18user_iterator_implINS_4UserEEEE25advancePastNonTerminatorsEv,"axG",@progbits,_ZN4llvm12PredIteratorINS_10BasicBlockENS_5Value18user_iterator_implINS_4UserEEEE25advancePastNonTerminatorsEv,comdat
	.weak	_ZN4llvm12PredIteratorINS_10BasicBlockENS_5Value18user_iterator_implINS_4UserEEEE25advancePastNonTerminatorsEv # -- Begin function _ZN4llvm12PredIteratorINS_10BasicBlockENS_5Value18user_iterator_implINS_4UserEEEE25advancePastNonTerminatorsEv
	.p2align	4, 0x90
	.type	_ZN4llvm12PredIteratorINS_10BasicBlockENS_5Value18user_iterator_implINS_4UserEEEE25advancePastNonTerminatorsEv,@function
_ZN4llvm12PredIteratorINS_10BasicBlockENS_5Value18user_iterator_implINS_4UserEEEE25advancePastNonTerminatorsEv: # @_ZN4llvm12PredIteratorINS_10BasicBlockENS_5Value18user_iterator_implINS_4UserEEEE25advancePastNonTerminatorsEv
	.cfi_startproc
# %bb.0:
	pushq	%rbp
	.cfi_def_cfa_offset 16
	.cfi_offset %rbp, -16
	movq	%rsp, %rbp
	.cfi_def_cfa_register %rbp
	subq	$32, %rsp
	movq	%rdi, -8(%rbp)
	movq	-8(%rbp), %rax
	movq	%rax, -24(%rbp)         # 8-byte Spill
.LBB105_1:                              # =>This Inner Loop Header: Depth=1
	movq	-24(%rbp), %rdi         # 8-byte Reload
	callq	_ZNK4llvm5Value18user_iterator_implINS_4UserEE5atEndEv
	xorb	$-1, %al
	testb	$1, %al
	jne	.LBB105_2
	jmp	.LBB105_7
.LBB105_2:                              #   in Loop: Header=BB105_1 Depth=1
	movq	-24(%rbp), %rdi         # 8-byte Reload
	callq	_ZNK4llvm5Value18user_iterator_implINS_4UserEEdeEv
	movq	%rax, %rdi
	callq	_ZN4llvm8dyn_castINS_11InstructionENS_4UserEEENS_10cast_rettyIT_PT0_E8ret_typeES6_
	movq	%rax, -16(%rbp)
	cmpq	$0, -16(%rbp)
	je	.LBB105_6
# %bb.3:                                #   in Loop: Header=BB105_1 Depth=1
	movq	-16(%rbp), %rdi
	callq	_ZNK4llvm11Instruction12isTerminatorEv
	testb	$1, %al
	jne	.LBB105_4
	jmp	.LBB105_5
.LBB105_4:
	jmp	.LBB105_7
.LBB105_5:                              #   in Loop: Header=BB105_1 Depth=1
	jmp	.LBB105_6
.LBB105_6:                              #   in Loop: Header=BB105_1 Depth=1
	movq	-24(%rbp), %rdi         # 8-byte Reload
	callq	_ZN4llvm5Value18user_iterator_implINS_4UserEEppEv
	jmp	.LBB105_1
.LBB105_7:
	addq	$32, %rsp
	popq	%rbp
	.cfi_def_cfa %rsp, 8
	retq
.Lfunc_end105:
	.size	_ZN4llvm12PredIteratorINS_10BasicBlockENS_5Value18user_iterator_implINS_4UserEEEE25advancePastNonTerminatorsEv, .Lfunc_end105-_ZN4llvm12PredIteratorINS_10BasicBlockENS_5Value18user_iterator_implINS_4UserEEEE25advancePastNonTerminatorsEv
	.cfi_endproc
                                        # -- End function
	.section	.text._ZNK4llvm5Value26assertModuleIsMaterializedEv,"axG",@progbits,_ZNK4llvm5Value26assertModuleIsMaterializedEv,comdat
	.weak	_ZNK4llvm5Value26assertModuleIsMaterializedEv # -- Begin function _ZNK4llvm5Value26assertModuleIsMaterializedEv
	.p2align	4, 0x90
	.type	_ZNK4llvm5Value26assertModuleIsMaterializedEv,@function
_ZNK4llvm5Value26assertModuleIsMaterializedEv: # @_ZNK4llvm5Value26assertModuleIsMaterializedEv
	.cfi_startproc
# %bb.0:
	pushq	%rbp
	.cfi_def_cfa_offset 16
	.cfi_offset %rbp, -16
	movq	%rsp, %rbp
	.cfi_def_cfa_register %rbp
	subq	$16, %rsp
	movq	%rdi, -8(%rbp)
	movq	-8(%rbp), %rdi
	callq	_ZNK4llvm5Value30assertModuleIsMaterializedImplEv
	addq	$16, %rsp
	popq	%rbp
	.cfi_def_cfa %rsp, 8
	retq
.Lfunc_end106:
	.size	_ZNK4llvm5Value26assertModuleIsMaterializedEv, .Lfunc_end106-_ZNK4llvm5Value26assertModuleIsMaterializedEv
	.cfi_endproc
                                        # -- End function
	.section	.text._ZN4llvm5Value23materialized_user_beginEv,"axG",@progbits,_ZN4llvm5Value23materialized_user_beginEv,comdat
	.weak	_ZN4llvm5Value23materialized_user_beginEv # -- Begin function _ZN4llvm5Value23materialized_user_beginEv
	.p2align	4, 0x90
	.type	_ZN4llvm5Value23materialized_user_beginEv,@function
_ZN4llvm5Value23materialized_user_beginEv: # @_ZN4llvm5Value23materialized_user_beginEv
	.cfi_startproc
# %bb.0:
	pushq	%rbp
	.cfi_def_cfa_offset 16
	.cfi_offset %rbp, -16
	movq	%rsp, %rbp
	.cfi_def_cfa_register %rbp
	subq	$16, %rsp
	movq	%rdi, -16(%rbp)
	movq	-16(%rbp), %rax
	movq	8(%rax), %rsi
	leaq	-8(%rbp), %rdi
	callq	_ZN4llvm5Value18user_iterator_implINS_4UserEEC2EPNS_3UseE
	movq	-8(%rbp), %rax
	addq	$16, %rsp
	popq	%rbp
	.cfi_def_cfa %rsp, 8
	retq
.Lfunc_end107:
	.size	_ZN4llvm5Value23materialized_user_beginEv, .Lfunc_end107-_ZN4llvm5Value23materialized_user_beginEv
	.cfi_endproc
                                        # -- End function
	.section	.text._ZN4llvm5Value18user_iterator_implINS_4UserEEC2EPNS_3UseE,"axG",@progbits,_ZN4llvm5Value18user_iterator_implINS_4UserEEC2EPNS_3UseE,comdat
	.weak	_ZN4llvm5Value18user_iterator_implINS_4UserEEC2EPNS_3UseE # -- Begin function _ZN4llvm5Value18user_iterator_implINS_4UserEEC2EPNS_3UseE
	.p2align	4, 0x90
	.type	_ZN4llvm5Value18user_iterator_implINS_4UserEEC2EPNS_3UseE,@function
_ZN4llvm5Value18user_iterator_implINS_4UserEEC2EPNS_3UseE: # @_ZN4llvm5Value18user_iterator_implINS_4UserEEC2EPNS_3UseE
	.cfi_startproc
# %bb.0:
	pushq	%rbp
	.cfi_def_cfa_offset 16
	.cfi_offset %rbp, -16
	movq	%rsp, %rbp
	.cfi_def_cfa_register %rbp
	subq	$16, %rsp
	movq	%rdi, -8(%rbp)
	movq	%rsi, -16(%rbp)
	movq	-8(%rbp), %rdi
	movq	-16(%rbp), %rsi
	callq	_ZN4llvm5Value17use_iterator_implINS_3UseEEC2EPS2_
	addq	$16, %rsp
	popq	%rbp
	.cfi_def_cfa %rsp, 8
	retq
.Lfunc_end108:
	.size	_ZN4llvm5Value18user_iterator_implINS_4UserEEC2EPNS_3UseE, .Lfunc_end108-_ZN4llvm5Value18user_iterator_implINS_4UserEEC2EPNS_3UseE
	.cfi_endproc
                                        # -- End function
	.section	.text._ZN4llvm5Value17use_iterator_implINS_3UseEEC2EPS2_,"axG",@progbits,_ZN4llvm5Value17use_iterator_implINS_3UseEEC2EPS2_,comdat
	.weak	_ZN4llvm5Value17use_iterator_implINS_3UseEEC2EPS2_ # -- Begin function _ZN4llvm5Value17use_iterator_implINS_3UseEEC2EPS2_
	.p2align	4, 0x90
	.type	_ZN4llvm5Value17use_iterator_implINS_3UseEEC2EPS2_,@function
_ZN4llvm5Value17use_iterator_implINS_3UseEEC2EPS2_: # @_ZN4llvm5Value17use_iterator_implINS_3UseEEC2EPS2_
	.cfi_startproc
# %bb.0:
	pushq	%rbp
	.cfi_def_cfa_offset 16
	.cfi_offset %rbp, -16
	movq	%rsp, %rbp
	.cfi_def_cfa_register %rbp
	movq	%rdi, -8(%rbp)
	movq	%rsi, -16(%rbp)
	movq	-8(%rbp), %rax
	movq	-16(%rbp), %rcx
	movq	%rcx, (%rax)
	popq	%rbp
	.cfi_def_cfa %rsp, 8
	retq
.Lfunc_end109:
	.size	_ZN4llvm5Value17use_iterator_implINS_3UseEEC2EPS2_, .Lfunc_end109-_ZN4llvm5Value17use_iterator_implINS_3UseEEC2EPS2_
	.cfi_endproc
                                        # -- End function
	.section	.text._ZNK4llvm5Value18user_iterator_implINS_4UserEE5atEndEv,"axG",@progbits,_ZNK4llvm5Value18user_iterator_implINS_4UserEE5atEndEv,comdat
	.weak	_ZNK4llvm5Value18user_iterator_implINS_4UserEE5atEndEv # -- Begin function _ZNK4llvm5Value18user_iterator_implINS_4UserEE5atEndEv
	.p2align	4, 0x90
	.type	_ZNK4llvm5Value18user_iterator_implINS_4UserEE5atEndEv,@function
_ZNK4llvm5Value18user_iterator_implINS_4UserEE5atEndEv: # @_ZNK4llvm5Value18user_iterator_implINS_4UserEE5atEndEv
	.cfi_startproc
# %bb.0:
	pushq	%rbp
	.cfi_def_cfa_offset 16
	.cfi_offset %rbp, -16
	movq	%rsp, %rbp
	.cfi_def_cfa_register %rbp
	subq	$32, %rsp
	xorl	%esi, %esi
	movq	%rdi, -8(%rbp)
	movq	-8(%rbp), %rdi
	leaq	-16(%rbp), %rax
	movq	%rax, %rcx
	movq	%rdi, -24(%rbp)         # 8-byte Spill
	movq	%rcx, %rdi
	movl	$8, %edx
	movq	%rax, -32(%rbp)         # 8-byte Spill
	callq	memset
	movq	-32(%rbp), %rdi         # 8-byte Reload
	callq	_ZN4llvm5Value18user_iterator_implINS_4UserEEC2Ev
	movq	-24(%rbp), %rdi         # 8-byte Reload
	leaq	-16(%rbp), %rsi
	callq	_ZNK4llvm5Value18user_iterator_implINS_4UserEEeqERKS3_
	andb	$1, %al
	movzbl	%al, %eax
	addq	$32, %rsp
	popq	%rbp
	.cfi_def_cfa %rsp, 8
	retq
.Lfunc_end110:
	.size	_ZNK4llvm5Value18user_iterator_implINS_4UserEE5atEndEv, .Lfunc_end110-_ZNK4llvm5Value18user_iterator_implINS_4UserEE5atEndEv
	.cfi_endproc
                                        # -- End function
	.section	.text._ZN4llvm8dyn_castINS_11InstructionENS_4UserEEENS_10cast_rettyIT_PT0_E8ret_typeES6_,"axG",@progbits,_ZN4llvm8dyn_castINS_11InstructionENS_4UserEEENS_10cast_rettyIT_PT0_E8ret_typeES6_,comdat
	.weak	_ZN4llvm8dyn_castINS_11InstructionENS_4UserEEENS_10cast_rettyIT_PT0_E8ret_typeES6_ # -- Begin function _ZN4llvm8dyn_castINS_11InstructionENS_4UserEEENS_10cast_rettyIT_PT0_E8ret_typeES6_
	.p2align	4, 0x90
	.type	_ZN4llvm8dyn_castINS_11InstructionENS_4UserEEENS_10cast_rettyIT_PT0_E8ret_typeES6_,@function
_ZN4llvm8dyn_castINS_11InstructionENS_4UserEEENS_10cast_rettyIT_PT0_E8ret_typeES6_: # @_ZN4llvm8dyn_castINS_11InstructionENS_4UserEEENS_10cast_rettyIT_PT0_E8ret_typeES6_
	.cfi_startproc
# %bb.0:
	pushq	%rbp
	.cfi_def_cfa_offset 16
	.cfi_offset %rbp, -16
	movq	%rsp, %rbp
	.cfi_def_cfa_register %rbp
	subq	$16, %rsp
	movq	%rdi, -8(%rbp)
	leaq	-8(%rbp), %rdi
	callq	_ZN4llvm3isaINS_11InstructionEPNS_4UserEEEbRKT0_
	testb	$1, %al
	jne	.LBB111_1
	jmp	.LBB111_2
.LBB111_1:
	movq	-8(%rbp), %rdi
	callq	_ZN4llvm4castINS_11InstructionENS_4UserEEENS_10cast_rettyIT_PT0_E8ret_typeES6_
	movq	%rax, -16(%rbp)         # 8-byte Spill
	jmp	.LBB111_3
.LBB111_2:
	xorl	%eax, %eax
	movl	%eax, %ecx
	movq	%rcx, -16(%rbp)         # 8-byte Spill
	jmp	.LBB111_3
.LBB111_3:
	movq	-16(%rbp), %rax         # 8-byte Reload
	addq	$16, %rsp
	popq	%rbp
	.cfi_def_cfa %rsp, 8
	retq
.Lfunc_end111:
	.size	_ZN4llvm8dyn_castINS_11InstructionENS_4UserEEENS_10cast_rettyIT_PT0_E8ret_typeES6_, .Lfunc_end111-_ZN4llvm8dyn_castINS_11InstructionENS_4UserEEENS_10cast_rettyIT_PT0_E8ret_typeES6_
	.cfi_endproc
                                        # -- End function
	.section	.text._ZNK4llvm5Value18user_iterator_implINS_4UserEEdeEv,"axG",@progbits,_ZNK4llvm5Value18user_iterator_implINS_4UserEEdeEv,comdat
	.weak	_ZNK4llvm5Value18user_iterator_implINS_4UserEEdeEv # -- Begin function _ZNK4llvm5Value18user_iterator_implINS_4UserEEdeEv
	.p2align	4, 0x90
	.type	_ZNK4llvm5Value18user_iterator_implINS_4UserEEdeEv,@function
_ZNK4llvm5Value18user_iterator_implINS_4UserEEdeEv: # @_ZNK4llvm5Value18user_iterator_implINS_4UserEEdeEv
	.cfi_startproc
# %bb.0:
	pushq	%rbp
	.cfi_def_cfa_offset 16
	.cfi_offset %rbp, -16
	movq	%rsp, %rbp
	.cfi_def_cfa_register %rbp
	subq	$16, %rsp
	movq	%rdi, -8(%rbp)
	movq	-8(%rbp), %rdi
	callq	_ZNK4llvm5Value17use_iterator_implINS_3UseEEptEv
	movq	%rax, %rdi
	callq	_ZNK4llvm3Use7getUserEv
	addq	$16, %rsp
	popq	%rbp
	.cfi_def_cfa %rsp, 8
	retq
.Lfunc_end112:
	.size	_ZNK4llvm5Value18user_iterator_implINS_4UserEEdeEv, .Lfunc_end112-_ZNK4llvm5Value18user_iterator_implINS_4UserEEdeEv
	.cfi_endproc
                                        # -- End function
	.section	.text._ZNK4llvm11Instruction12isTerminatorEv,"axG",@progbits,_ZNK4llvm11Instruction12isTerminatorEv,comdat
	.weak	_ZNK4llvm11Instruction12isTerminatorEv # -- Begin function _ZNK4llvm11Instruction12isTerminatorEv
	.p2align	4, 0x90
	.type	_ZNK4llvm11Instruction12isTerminatorEv,@function
_ZNK4llvm11Instruction12isTerminatorEv: # @_ZNK4llvm11Instruction12isTerminatorEv
	.cfi_startproc
# %bb.0:
	pushq	%rbp
	.cfi_def_cfa_offset 16
	.cfi_offset %rbp, -16
	movq	%rsp, %rbp
	.cfi_def_cfa_register %rbp
	subq	$16, %rsp
	movq	%rdi, -8(%rbp)
	movq	-8(%rbp), %rdi
	callq	_ZNK4llvm11Instruction9getOpcodeEv
	movl	%eax, %edi
	callq	_ZN4llvm11Instruction12isTerminatorEj
	andb	$1, %al
	movzbl	%al, %eax
	addq	$16, %rsp
	popq	%rbp
	.cfi_def_cfa %rsp, 8
	retq
.Lfunc_end113:
	.size	_ZNK4llvm11Instruction12isTerminatorEv, .Lfunc_end113-_ZNK4llvm11Instruction12isTerminatorEv
	.cfi_endproc
                                        # -- End function
	.section	.text._ZN4llvm5Value18user_iterator_implINS_4UserEEppEv,"axG",@progbits,_ZN4llvm5Value18user_iterator_implINS_4UserEEppEv,comdat
	.weak	_ZN4llvm5Value18user_iterator_implINS_4UserEEppEv # -- Begin function _ZN4llvm5Value18user_iterator_implINS_4UserEEppEv
	.p2align	4, 0x90
	.type	_ZN4llvm5Value18user_iterator_implINS_4UserEEppEv,@function
_ZN4llvm5Value18user_iterator_implINS_4UserEEppEv: # @_ZN4llvm5Value18user_iterator_implINS_4UserEEppEv
	.cfi_startproc
# %bb.0:
	pushq	%rbp
	.cfi_def_cfa_offset 16
	.cfi_offset %rbp, -16
	movq	%rsp, %rbp
	.cfi_def_cfa_register %rbp
	subq	$32, %rsp
	movq	%rdi, -8(%rbp)
	movq	-8(%rbp), %rax
	movq	%rax, %rdi
	movq	%rax, -16(%rbp)         # 8-byte Spill
	callq	_ZN4llvm5Value17use_iterator_implINS_3UseEEppEv
	movq	-16(%rbp), %rcx         # 8-byte Reload
	movq	%rax, -24(%rbp)         # 8-byte Spill
	movq	%rcx, %rax
	addq	$32, %rsp
	popq	%rbp
	.cfi_def_cfa %rsp, 8
	retq
.Lfunc_end114:
	.size	_ZN4llvm5Value18user_iterator_implINS_4UserEEppEv, .Lfunc_end114-_ZN4llvm5Value18user_iterator_implINS_4UserEEppEv
	.cfi_endproc
                                        # -- End function
	.section	.text._ZNK4llvm5Value18user_iterator_implINS_4UserEEeqERKS3_,"axG",@progbits,_ZNK4llvm5Value18user_iterator_implINS_4UserEEeqERKS3_,comdat
	.weak	_ZNK4llvm5Value18user_iterator_implINS_4UserEEeqERKS3_ # -- Begin function _ZNK4llvm5Value18user_iterator_implINS_4UserEEeqERKS3_
	.p2align	4, 0x90
	.type	_ZNK4llvm5Value18user_iterator_implINS_4UserEEeqERKS3_,@function
_ZNK4llvm5Value18user_iterator_implINS_4UserEEeqERKS3_: # @_ZNK4llvm5Value18user_iterator_implINS_4UserEEeqERKS3_
	.cfi_startproc
# %bb.0:
	pushq	%rbp
	.cfi_def_cfa_offset 16
	.cfi_offset %rbp, -16
	movq	%rsp, %rbp
	.cfi_def_cfa_register %rbp
	subq	$16, %rsp
	movq	%rdi, -8(%rbp)
	movq	%rsi, -16(%rbp)
	movq	-8(%rbp), %rdi
	movq	-16(%rbp), %rsi
	callq	_ZNK4llvm5Value17use_iterator_implINS_3UseEEeqERKS3_
	andb	$1, %al
	movzbl	%al, %eax
	addq	$16, %rsp
	popq	%rbp
	.cfi_def_cfa %rsp, 8
	retq
.Lfunc_end115:
	.size	_ZNK4llvm5Value18user_iterator_implINS_4UserEEeqERKS3_, .Lfunc_end115-_ZNK4llvm5Value18user_iterator_implINS_4UserEEeqERKS3_
	.cfi_endproc
                                        # -- End function
	.section	.text._ZN4llvm5Value18user_iterator_implINS_4UserEEC2Ev,"axG",@progbits,_ZN4llvm5Value18user_iterator_implINS_4UserEEC2Ev,comdat
	.weak	_ZN4llvm5Value18user_iterator_implINS_4UserEEC2Ev # -- Begin function _ZN4llvm5Value18user_iterator_implINS_4UserEEC2Ev
	.p2align	4, 0x90
	.type	_ZN4llvm5Value18user_iterator_implINS_4UserEEC2Ev,@function
_ZN4llvm5Value18user_iterator_implINS_4UserEEC2Ev: # @_ZN4llvm5Value18user_iterator_implINS_4UserEEC2Ev
	.cfi_startproc
# %bb.0:
	pushq	%rbp
	.cfi_def_cfa_offset 16
	.cfi_offset %rbp, -16
	movq	%rsp, %rbp
	.cfi_def_cfa_register %rbp
	subq	$16, %rsp
	movq	%rdi, -8(%rbp)
	movq	-8(%rbp), %rdi
	callq	_ZN4llvm5Value17use_iterator_implINS_3UseEEC2Ev
	addq	$16, %rsp
	popq	%rbp
	.cfi_def_cfa %rsp, 8
	retq
.Lfunc_end116:
	.size	_ZN4llvm5Value18user_iterator_implINS_4UserEEC2Ev, .Lfunc_end116-_ZN4llvm5Value18user_iterator_implINS_4UserEEC2Ev
	.cfi_endproc
                                        # -- End function
	.section	.text._ZNK4llvm5Value17use_iterator_implINS_3UseEEeqERKS3_,"axG",@progbits,_ZNK4llvm5Value17use_iterator_implINS_3UseEEeqERKS3_,comdat
	.weak	_ZNK4llvm5Value17use_iterator_implINS_3UseEEeqERKS3_ # -- Begin function _ZNK4llvm5Value17use_iterator_implINS_3UseEEeqERKS3_
	.p2align	4, 0x90
	.type	_ZNK4llvm5Value17use_iterator_implINS_3UseEEeqERKS3_,@function
_ZNK4llvm5Value17use_iterator_implINS_3UseEEeqERKS3_: # @_ZNK4llvm5Value17use_iterator_implINS_3UseEEeqERKS3_
	.cfi_startproc
# %bb.0:
	pushq	%rbp
	.cfi_def_cfa_offset 16
	.cfi_offset %rbp, -16
	movq	%rsp, %rbp
	.cfi_def_cfa_register %rbp
	movq	%rdi, -8(%rbp)
	movq	%rsi, -16(%rbp)
	movq	-8(%rbp), %rax
	movq	(%rax), %rax
	movq	-16(%rbp), %rcx
	cmpq	(%rcx), %rax
	sete	%dl
	andb	$1, %dl
	movzbl	%dl, %eax
	popq	%rbp
	.cfi_def_cfa %rsp, 8
	retq
.Lfunc_end117:
	.size	_ZNK4llvm5Value17use_iterator_implINS_3UseEEeqERKS3_, .Lfunc_end117-_ZNK4llvm5Value17use_iterator_implINS_3UseEEeqERKS3_
	.cfi_endproc
                                        # -- End function
	.section	.text._ZN4llvm5Value17use_iterator_implINS_3UseEEC2Ev,"axG",@progbits,_ZN4llvm5Value17use_iterator_implINS_3UseEEC2Ev,comdat
	.weak	_ZN4llvm5Value17use_iterator_implINS_3UseEEC2Ev # -- Begin function _ZN4llvm5Value17use_iterator_implINS_3UseEEC2Ev
	.p2align	4, 0x90
	.type	_ZN4llvm5Value17use_iterator_implINS_3UseEEC2Ev,@function
_ZN4llvm5Value17use_iterator_implINS_3UseEEC2Ev: # @_ZN4llvm5Value17use_iterator_implINS_3UseEEC2Ev
	.cfi_startproc
# %bb.0:
	pushq	%rbp
	.cfi_def_cfa_offset 16
	.cfi_offset %rbp, -16
	movq	%rsp, %rbp
	.cfi_def_cfa_register %rbp
	movq	%rdi, -8(%rbp)
	movq	-8(%rbp), %rax
	movq	$0, (%rax)
	popq	%rbp
	.cfi_def_cfa %rsp, 8
	retq
.Lfunc_end118:
	.size	_ZN4llvm5Value17use_iterator_implINS_3UseEEC2Ev, .Lfunc_end118-_ZN4llvm5Value17use_iterator_implINS_3UseEEC2Ev
	.cfi_endproc
                                        # -- End function
	.section	.text._ZN4llvm3isaINS_11InstructionEPNS_4UserEEEbRKT0_,"axG",@progbits,_ZN4llvm3isaINS_11InstructionEPNS_4UserEEEbRKT0_,comdat
	.weak	_ZN4llvm3isaINS_11InstructionEPNS_4UserEEEbRKT0_ # -- Begin function _ZN4llvm3isaINS_11InstructionEPNS_4UserEEEbRKT0_
	.p2align	4, 0x90
	.type	_ZN4llvm3isaINS_11InstructionEPNS_4UserEEEbRKT0_,@function
_ZN4llvm3isaINS_11InstructionEPNS_4UserEEEbRKT0_: # @_ZN4llvm3isaINS_11InstructionEPNS_4UserEEEbRKT0_
	.cfi_startproc
# %bb.0:
	pushq	%rbp
	.cfi_def_cfa_offset 16
	.cfi_offset %rbp, -16
	movq	%rsp, %rbp
	.cfi_def_cfa_register %rbp
	subq	$16, %rsp
	movq	%rdi, -8(%rbp)
	movq	-8(%rbp), %rdi
	callq	_ZN4llvm13isa_impl_wrapINS_11InstructionEKPNS_4UserEPKS2_E4doitERS4_
	andb	$1, %al
	movzbl	%al, %eax
	addq	$16, %rsp
	popq	%rbp
	.cfi_def_cfa %rsp, 8
	retq
.Lfunc_end119:
	.size	_ZN4llvm3isaINS_11InstructionEPNS_4UserEEEbRKT0_, .Lfunc_end119-_ZN4llvm3isaINS_11InstructionEPNS_4UserEEEbRKT0_
	.cfi_endproc
                                        # -- End function
	.section	.text._ZN4llvm4castINS_11InstructionENS_4UserEEENS_10cast_rettyIT_PT0_E8ret_typeES6_,"axG",@progbits,_ZN4llvm4castINS_11InstructionENS_4UserEEENS_10cast_rettyIT_PT0_E8ret_typeES6_,comdat
	.weak	_ZN4llvm4castINS_11InstructionENS_4UserEEENS_10cast_rettyIT_PT0_E8ret_typeES6_ # -- Begin function _ZN4llvm4castINS_11InstructionENS_4UserEEENS_10cast_rettyIT_PT0_E8ret_typeES6_
	.p2align	4, 0x90
	.type	_ZN4llvm4castINS_11InstructionENS_4UserEEENS_10cast_rettyIT_PT0_E8ret_typeES6_,@function
_ZN4llvm4castINS_11InstructionENS_4UserEEENS_10cast_rettyIT_PT0_E8ret_typeES6_: # @_ZN4llvm4castINS_11InstructionENS_4UserEEENS_10cast_rettyIT_PT0_E8ret_typeES6_
	.cfi_startproc
# %bb.0:
	pushq	%rbp
	.cfi_def_cfa_offset 16
	.cfi_offset %rbp, -16
	movq	%rsp, %rbp
	.cfi_def_cfa_register %rbp
	subq	$16, %rsp
	movq	%rdi, -8(%rbp)
	leaq	-8(%rbp), %rdi
	callq	_ZN4llvm3isaINS_11InstructionEPNS_4UserEEEbRKT0_
	xorl	%ecx, %ecx
                                        # kill: def $cl killed $cl killed $ecx
	testb	$1, %al
	movb	%cl, -9(%rbp)           # 1-byte Spill
	jne	.LBB120_1
	jmp	.LBB120_2
.LBB120_1:
	movb	$1, %al
	movb	%al, -9(%rbp)           # 1-byte Spill
	jmp	.LBB120_2
.LBB120_2:
	movb	-9(%rbp), %al           # 1-byte Reload
	testb	$1, %al
	jne	.LBB120_3
	jmp	.LBB120_4
.LBB120_3:
	jmp	.LBB120_5
.LBB120_4:
	movabsq	$.L.str.62, %rdi
	movabsq	$.L.str.60, %rsi
	movl	$264, %edx              # imm = 0x108
	movabsq	$.L__PRETTY_FUNCTION__._ZN4llvm4castINS_11InstructionENS_4UserEEENS_10cast_rettyIT_PT0_E8ret_typeES6_, %rcx
	callq	__assert_fail
.LBB120_5:
	leaq	-8(%rbp), %rdi
	callq	_ZN4llvm16cast_convert_valINS_11InstructionEPNS_4UserES3_E4doitERKS3_
	addq	$16, %rsp
	popq	%rbp
	.cfi_def_cfa %rsp, 8
	retq
.Lfunc_end120:
	.size	_ZN4llvm4castINS_11InstructionENS_4UserEEENS_10cast_rettyIT_PT0_E8ret_typeES6_, .Lfunc_end120-_ZN4llvm4castINS_11InstructionENS_4UserEEENS_10cast_rettyIT_PT0_E8ret_typeES6_
	.cfi_endproc
                                        # -- End function
	.section	.text._ZN4llvm13isa_impl_wrapINS_11InstructionEKPNS_4UserEPKS2_E4doitERS4_,"axG",@progbits,_ZN4llvm13isa_impl_wrapINS_11InstructionEKPNS_4UserEPKS2_E4doitERS4_,comdat
	.weak	_ZN4llvm13isa_impl_wrapINS_11InstructionEKPNS_4UserEPKS2_E4doitERS4_ # -- Begin function _ZN4llvm13isa_impl_wrapINS_11InstructionEKPNS_4UserEPKS2_E4doitERS4_
	.p2align	4, 0x90
	.type	_ZN4llvm13isa_impl_wrapINS_11InstructionEKPNS_4UserEPKS2_E4doitERS4_,@function
_ZN4llvm13isa_impl_wrapINS_11InstructionEKPNS_4UserEPKS2_E4doitERS4_: # @_ZN4llvm13isa_impl_wrapINS_11InstructionEKPNS_4UserEPKS2_E4doitERS4_
	.cfi_startproc
# %bb.0:
	pushq	%rbp
	.cfi_def_cfa_offset 16
	.cfi_offset %rbp, -16
	movq	%rsp, %rbp
	.cfi_def_cfa_register %rbp
	subq	$16, %rsp
	movq	%rdi, -8(%rbp)
	movq	-8(%rbp), %rdi
	callq	_ZN4llvm13simplify_typeIKPNS_4UserEE18getSimplifiedValueERS3_
	movq	%rax, -16(%rbp)
	leaq	-16(%rbp), %rdi
	callq	_ZN4llvm13isa_impl_wrapINS_11InstructionEPKNS_4UserES4_E4doitERKS4_
	andb	$1, %al
	movzbl	%al, %eax
	addq	$16, %rsp
	popq	%rbp
	.cfi_def_cfa %rsp, 8
	retq
.Lfunc_end121:
	.size	_ZN4llvm13isa_impl_wrapINS_11InstructionEKPNS_4UserEPKS2_E4doitERS4_, .Lfunc_end121-_ZN4llvm13isa_impl_wrapINS_11InstructionEKPNS_4UserEPKS2_E4doitERS4_
	.cfi_endproc
                                        # -- End function
	.section	.text._ZN4llvm13isa_impl_wrapINS_11InstructionEPKNS_4UserES4_E4doitERKS4_,"axG",@progbits,_ZN4llvm13isa_impl_wrapINS_11InstructionEPKNS_4UserES4_E4doitERKS4_,comdat
	.weak	_ZN4llvm13isa_impl_wrapINS_11InstructionEPKNS_4UserES4_E4doitERKS4_ # -- Begin function _ZN4llvm13isa_impl_wrapINS_11InstructionEPKNS_4UserES4_E4doitERKS4_
	.p2align	4, 0x90
	.type	_ZN4llvm13isa_impl_wrapINS_11InstructionEPKNS_4UserES4_E4doitERKS4_,@function
_ZN4llvm13isa_impl_wrapINS_11InstructionEPKNS_4UserES4_E4doitERKS4_: # @_ZN4llvm13isa_impl_wrapINS_11InstructionEPKNS_4UserES4_E4doitERKS4_
	.cfi_startproc
# %bb.0:
	pushq	%rbp
	.cfi_def_cfa_offset 16
	.cfi_offset %rbp, -16
	movq	%rsp, %rbp
	.cfi_def_cfa_register %rbp
	subq	$16, %rsp
	movq	%rdi, -8(%rbp)
	movq	-8(%rbp), %rax
	movq	(%rax), %rdi
	callq	_ZN4llvm11isa_impl_clINS_11InstructionEPKNS_4UserEE4doitES4_
	andb	$1, %al
	movzbl	%al, %eax
	addq	$16, %rsp
	popq	%rbp
	.cfi_def_cfa %rsp, 8
	retq
.Lfunc_end122:
	.size	_ZN4llvm13isa_impl_wrapINS_11InstructionEPKNS_4UserES4_E4doitERKS4_, .Lfunc_end122-_ZN4llvm13isa_impl_wrapINS_11InstructionEPKNS_4UserES4_E4doitERKS4_
	.cfi_endproc
                                        # -- End function
	.section	.text._ZN4llvm13simplify_typeIKPNS_4UserEE18getSimplifiedValueERS3_,"axG",@progbits,_ZN4llvm13simplify_typeIKPNS_4UserEE18getSimplifiedValueERS3_,comdat
	.weak	_ZN4llvm13simplify_typeIKPNS_4UserEE18getSimplifiedValueERS3_ # -- Begin function _ZN4llvm13simplify_typeIKPNS_4UserEE18getSimplifiedValueERS3_
	.p2align	4, 0x90
	.type	_ZN4llvm13simplify_typeIKPNS_4UserEE18getSimplifiedValueERS3_,@function
_ZN4llvm13simplify_typeIKPNS_4UserEE18getSimplifiedValueERS3_: # @_ZN4llvm13simplify_typeIKPNS_4UserEE18getSimplifiedValueERS3_
	.cfi_startproc
# %bb.0:
	pushq	%rbp
	.cfi_def_cfa_offset 16
	.cfi_offset %rbp, -16
	movq	%rsp, %rbp
	.cfi_def_cfa_register %rbp
	subq	$16, %rsp
	movq	%rdi, -8(%rbp)
	movq	-8(%rbp), %rdi
	callq	_ZN4llvm13simplify_typeIPNS_4UserEE18getSimplifiedValueERS2_
	movq	(%rax), %rax
	addq	$16, %rsp
	popq	%rbp
	.cfi_def_cfa %rsp, 8
	retq
.Lfunc_end123:
	.size	_ZN4llvm13simplify_typeIKPNS_4UserEE18getSimplifiedValueERS3_, .Lfunc_end123-_ZN4llvm13simplify_typeIKPNS_4UserEE18getSimplifiedValueERS3_
	.cfi_endproc
                                        # -- End function
	.section	.text._ZN4llvm11isa_impl_clINS_11InstructionEPKNS_4UserEE4doitES4_,"axG",@progbits,_ZN4llvm11isa_impl_clINS_11InstructionEPKNS_4UserEE4doitES4_,comdat
	.weak	_ZN4llvm11isa_impl_clINS_11InstructionEPKNS_4UserEE4doitES4_ # -- Begin function _ZN4llvm11isa_impl_clINS_11InstructionEPKNS_4UserEE4doitES4_
	.p2align	4, 0x90
	.type	_ZN4llvm11isa_impl_clINS_11InstructionEPKNS_4UserEE4doitES4_,@function
_ZN4llvm11isa_impl_clINS_11InstructionEPKNS_4UserEE4doitES4_: # @_ZN4llvm11isa_impl_clINS_11InstructionEPKNS_4UserEE4doitES4_
	.cfi_startproc
# %bb.0:
	pushq	%rbp
	.cfi_def_cfa_offset 16
	.cfi_offset %rbp, -16
	movq	%rsp, %rbp
	.cfi_def_cfa_register %rbp
	subq	$16, %rsp
	xorl	%eax, %eax
                                        # kill: def $al killed $al killed $eax
	movq	%rdi, -8(%rbp)
	cmpq	$0, -8(%rbp)
	movb	%al, -9(%rbp)           # 1-byte Spill
	je	.LBB124_2
# %bb.1:
	movb	$1, %al
	movb	%al, -9(%rbp)           # 1-byte Spill
	jmp	.LBB124_2
.LBB124_2:
	movb	-9(%rbp), %al           # 1-byte Reload
	testb	$1, %al
	jne	.LBB124_3
	jmp	.LBB124_4
.LBB124_3:
	jmp	.LBB124_5
.LBB124_4:
	movabsq	$.L.str.59, %rdi
	movabsq	$.L.str.60, %rsi
	movl	$105, %edx
